// TC_OUT
000000000005c520 <_IO_vfscanf>:
   5c520:	push   %rbp
   5c521:	mov    %rsp,%rbp
   5c524:	push   %r15
   5c526:	push   %r14
   5c528:	push   %r13
   5c52a:	push   %r12
   5c52c:	mov    %rdi,%r15
   5c52f:	push   %rbx
   5c530:	mov    %rsi,%rbx
   5c533:	sub    $0x6a8,%rsp
   5c53a:	mov    0x36386f(%rip),%rax        # 3bfdb0 <_DYNAMIC+0x250>
   5c541:	mov    %rdx,-0x650(%rbp)
   5c548:	mov    %rcx,-0x618(%rbp)
   5c54f:	mov    %fs:(%rax),%rax
   5c553:	mov    %rax,-0x5f8(%rbp)
   5c55a:	mov    (%rax),%rax
   5c55d:	movq   $0x400,-0x438(%rbp)
   5c568:	mov    %rax,-0x648(%rbp)
   5c56f:	lea    -0x450(%rbp),%rax
   5c576:	mov    %rax,-0x610(%rbp)
   5c57d:	add    $0x20,%rax
   5c581:	mov    %rax,-0x440(%rbp)
   5c588:	mov    (%rdx),%rax
   5c58b:	mov    %rax,-0x5a8(%rbp)
   5c592:	mov    0x8(%rdx),%rax
   5c596:	mov    %rax,-0x5a0(%rbp)
   5c59d:	mov    0x10(%rdx),%rax
   5c5a1:	mov    %rax,-0x598(%rbp)
   5c5a8:	mov    0xc0(%rdi),%eax
   5c5ae:	test   %eax,%eax
   5c5b0:	jne    5c840 <_IO_vfscanf+0x320>
   5c5b6:	movl   $0xffffffff,0xc0(%rdi)
   5c5c0:	mov    (%r15),%eax
   5c5c3:	test   $0x4,%al
   5c5c5:	jne    5e6d1 <_IO_vfscanf+0x21b1>
   5c5cb:	test   %rbx,%rbx
   5c5ce:	je     5f6b5 <_IO_vfscanf+0x3195>
   5c5d4:	mov    -0x5f8(%rbp),%rsi
   5c5db:	mov    0x8(%rsi),%rdx
   5c5df:	mov    0x36910b(%rip),%esi        # 3c56f0 <__libc_pthread_functions_init>
   5c5e5:	mov    0x40(%rdx),%rdi
   5c5e9:	mov    %esi,-0x5f0(%rbp)
   5c5ef:	mov    %rdi,-0x670(%rbp)
   5c5f6:	mov    0x48(%rdx),%rdi
   5c5fa:	mov    $0x0,%edx
   5c5ff:	cmpb   $0x0,(%rdi)
   5c602:	cmovne %rdi,%rdx
   5c606:	test   %esi,%esi
   5c608:	mov    %rdx,-0x620(%rbp)
   5c60f:	jne    5ca90 <_IO_vfscanf+0x570>
   5c615:	mov    0x36394c(%rip),%rdx        # 3bff68 <_DYNAMIC+0x408>
   5c61c:	mov    %r15,-0x588(%rbp)
   5c623:	mov    %rdx,-0x590(%rbp)
   5c62a:	and    $0x8000,%eax
   5c62f:	je     5c860 <_IO_vfscanf+0x340>
   5c635:	lea    -0x520(%rbp),%rax
   5c63c:	xor    %r13d,%r13d
   5c63f:	xor    %r11d,%r11d
   5c642:	mov    %r13d,-0x600(%rbp)
   5c649:	movq   $0x0,-0x5e0(%rbp)
   5c654:	xor    %r10d,%r10d
   5c657:	mov    %rax,-0x630(%rbp)
   5c65e:	add    $0xbb,%rax
   5c664:	movl   $0x0,-0x5e4(%rbp)
   5c66e:	movl   $0x0,-0x5e8(%rbp)
   5c678:	movq   $0x0,-0x658(%rbp)
   5c683:	mov    %r11,%r14
   5c686:	movq   $0x0,-0x608(%rbp)
   5c691:	movq   $0x0,-0x640(%rbp)
   5c69c:	mov    %r15,%r13
   5c69f:	movq   $0x0,-0x668(%rbp)
   5c6aa:	movq   $0x0,-0x660(%rbp)
   5c6b5:	mov    %rax,-0x680(%rbp)
   5c6bc:	movzbl (%rbx),%r12d
   5c6c0:	test   %r12b,%r12b
   5c6c3:	je     5e616 <_IO_vfscanf+0x20f6>
   5c6c9:	test   $0x80,%r12b
   5c6cd:	jne    5c790 <_IO_vfscanf+0x270>
   5c6d3:	cmp    $0x25,%r12b
   5c6d7:	lea    0x1(%rbx),%r15
   5c6db:	je     5c8c0 <_IO_vfscanf+0x3a0>
   5c6e1:	mov    -0x5f8(%rbp),%rdi
   5c6e8:	movzbl %r12b,%eax
   5c6ec:	mov    0x68(%rdi),%rdx
   5c6f0:	testb  $0x20,0x1(%rdx,%rax,2)
   5c6f5:	jne    5c828 <_IO_vfscanf+0x308>
   5c6fb:	cmp    $0xffffffff,%r10d
   5c6ff:	je     5cbb0 <_IO_vfscanf+0x690>
   5c705:	mov    0x8(%r13),%rax
   5c709:	cmp    0x10(%r13),%rax
   5c70d:	jae    5e5fd <_IO_vfscanf+0x20dd>
   5c713:	lea    0x1(%rax),%rdx
   5c717:	mov    %rdx,0x8(%r13)
   5c71b:	movzbl (%rax),%eax
   5c71e:	mov    -0x600(%rbp),%esi
   5c724:	add    $0x1,%r14
   5c728:	test   %esi,%esi
   5c72a:	je     5c770 <_IO_vfscanf+0x250>
   5c72c:	mov    -0x5f8(%rbp),%rsi
   5c733:	movslq %eax,%rcx
   5c736:	mov    0x68(%rsi),%rdx
   5c73a:	testb  $0x20,0x1(%rdx,%rcx,2)
   5c73f:	je     5c770 <_IO_vfscanf+0x250>
   5c741:	nopl   0x0(%rax)
   5c748:	mov    0x8(%r13),%rax
   5c74c:	cmp    0x10(%r13),%rax
   5c750:	jae    5cea0 <_IO_vfscanf+0x980>
   5c756:	lea    0x1(%rax),%rcx
   5c75a:	add    $0x1,%r14
   5c75e:	mov    %rcx,0x8(%r13)
   5c762:	movzbl (%rax),%eax
   5c765:	movslq %eax,%rcx
   5c768:	testb  $0x20,0x1(%rdx,%rcx,2)
   5c76d:	jne    5c748 <_IO_vfscanf+0x228>
   5c76f:	nop
   5c770:	movzbl %r12b,%r10d
   5c774:	cmp    %r10d,%eax
   5c777:	jne    5e6a8 <_IO_vfscanf+0x2188>
   5c77d:	movl   $0x0,-0x600(%rbp)
   5c787:	jmpq   5c832 <_IO_vfscanf+0x312>
   5c78c:	nopl   0x0(%rax)
   5c790:	mov    %rbx,%rdi
   5c793:	mov    %r10d,-0x5ec(%rbp)
   5c79a:	callq  8cfc0 <strlen>
   5c79f:	lea    -0x5e0(%rbp),%rdx
   5c7a6:	mov    %rax,%rsi
   5c7a9:	mov    %rbx,%rdi
   5c7ac:	callq  ac3e0 <__mbrlen>
   5c7b1:	test   %eax,%eax
   5c7b3:	mov    -0x5ec(%rbp),%r10d
   5c7ba:	jle    5cbf0 <_IO_vfscanf+0x6d0>
   5c7c0:	cmp    $0xffffffff,%r10d
   5c7c4:	je     5c988 <_IO_vfscanf+0x468>
   5c7ca:	sub    $0x1,%eax
   5c7cd:	mov    %rbx,%r15
   5c7d0:	lea    0x1(%rbx,%rax,1),%r12
   5c7d5:	jmp    5c806 <_IO_vfscanf+0x2e6>
   5c7d7:	nopw   0x0(%rax,%rax,1)
   5c7e0:	lea    0x1(%rax),%rdx
   5c7e4:	mov    %rdx,0x8(%r13)
   5c7e8:	movzbl (%rax),%eax
   5c7eb:	add    $0x1,%r15
   5c7ef:	movzbl -0x1(%r15),%r10d
   5c7f4:	add    $0x1,%r14
   5c7f8:	cmp    %eax,%r10d
   5c7fb:	jne    5e6ee <_IO_vfscanf+0x21ce>
   5c801:	cmp    %r12,%r15
   5c804:	je     5c832 <_IO_vfscanf+0x312>
   5c806:	mov    0x8(%r13),%rax
   5c80a:	cmp    0x10(%r13),%rax
   5c80e:	jb     5c7e0 <_IO_vfscanf+0x2c0>
   5c810:	mov    %r13,%rdi
   5c813:	callq  7d720 <__uflow>
   5c818:	cmp    $0xffffffff,%eax
   5c81b:	jne    5c7eb <_IO_vfscanf+0x2cb>
   5c81d:	mov    %r13,%r15
   5c820:	jmpq   5c99b <_IO_vfscanf+0x47b>
   5c825:	nopl   (%rax)
   5c828:	movl   $0x1,-0x600(%rbp)
   5c832:	mov    %r15,%rbx
   5c835:	jmpq   5c6bc <_IO_vfscanf+0x19c>
   5c83a:	nopw   0x0(%rax,%rax,1)
   5c840:	cmp    $0xffffffff,%eax
   5c843:	je     5c5c0 <_IO_vfscanf+0xa0>
   5c849:	movl   $0xffffffff,-0x5e8(%rbp)
   5c853:	jmpq   5ca50 <_IO_vfscanf+0x530>
   5c858:	nopl   0x0(%rax,%rax,1)
   5c860:	mov    0x88(%r15),%rdx
   5c867:	mov    %fs:0x10,%r8
   5c870:	cmp    0x8(%rdx),%r8
   5c874:	je     5c8b2 <_IO_vfscanf+0x392>
   5c876:	mov    $0x1,%esi
   5c87b:	cmpl   $0x0,0x368e7e(%rip)        # 3c5700 <__libc_multiple_threads>
   5c882:	je     5c88c <_IO_vfscanf+0x36c>
   5c884:	lock cmpxchg %esi,(%rdx)
   5c888:	jne    5c891 <_IO_vfscanf+0x371>
   5c88a:	jmp    5c8a7 <_IO_vfscanf+0x387>
   5c88c:	cmpxchg %esi,(%rdx)
   5c88f:	je     5c8a7 <_IO_vfscanf+0x387>
   5c891:	lea    (%rdx),%rdi
   5c894:	sub    $0x80,%rsp
   5c89b:	callq  115f40 <__lll_lock_wait_private>
   5c8a0:	add    $0x80,%rsp
   5c8a7:	mov    0x88(%r15),%rdx
   5c8ae:	mov    %r8,0x8(%rdx)
   5c8b2:	addl   $0x1,0x4(%rdx)
   5c8b6:	jmpq   5c635 <_IO_vfscanf+0x115>
   5c8bb:	nopl   0x0(%rax,%rax,1)
   5c8c0:	mov    -0x440(%rbp),%rax
   5c8c7:	mov    %rax,-0x450(%rbp)
   5c8ce:	add    -0x438(%rbp),%rax
   5c8d5:	mov    %rax,-0x448(%rbp)
   5c8dc:	movzbl 0x1(%rbx),%eax
   5c8e0:	sub    $0x30,%eax
   5c8e3:	cmp    $0x9,%eax
   5c8e6:	ja     5cac0 <_IO_vfscanf+0x5a0>
   5c8ec:	mov    %eax,%esi
   5c8ee:	mov    %eax,-0x638(%rbp)
   5c8f4:	movzbl 0x2(%rbx),%eax
   5c8f8:	lea    0x2(%rbx),%r15
   5c8fc:	lea    -0x30(%rax),%edx
   5c8ff:	mov    %eax,%ebx
   5c901:	cmp    $0x9,%edx
   5c904:	ja     5c92f <_IO_vfscanf+0x40f>
   5c906:	mov    %esi,%edx
   5c908:	nopl   0x0(%rax,%rax,1)
   5c910:	lea    (%rdx,%rdx,4),%edx
   5c913:	add    $0x1,%r15
   5c917:	lea    -0x30(%rax,%rdx,2),%edx
   5c91b:	movzbl (%r15),%eax
   5c91f:	lea    -0x30(%rax),%ecx
   5c922:	mov    %eax,%ebx
   5c924:	cmp    $0x9,%ecx
   5c927:	jbe    5c910 <_IO_vfscanf+0x3f0>
   5c929:	mov    %edx,-0x638(%rbp)
   5c92f:	cmp    $0x24,%bl
   5c932:	je     5cd48 <_IO_vfscanf+0x828>
   5c938:	mov    -0x638(%rbp),%r12d
   5c93f:	movl   $0x0,-0x5ec(%rbp)
   5c949:	movl   $0x0,-0x638(%rbp)
   5c953:	test   %r12d,%r12d
   5c956:	mov    $0xffffffff,%eax
   5c95b:	cmove  %eax,%r12d
   5c95f:	lea    -0x4c(%rbx),%eax
   5c962:	lea    0x1(%r15),%rdx
   5c966:	cmp    $0x2e,%al
   5c968:	ja     5cf77 <_IO_vfscanf+0xa57>
   5c96e:	lea    0x126ea7(%rip),%rcx        # 18381c <jump_table+0x5c>
   5c975:	movzbl %al,%eax
   5c978:	movslq (%rcx,%rax,4),%rax
   5c97c:	add    %rcx,%rax
   5c97f:	jmpq   *%rax
   5c981:	nopl   0x0(%rax)
   5c988:	mov    0x3634d9(%rip),%rax        # 3bfe68 <_DYNAMIC+0x308>
   5c98f:	mov    -0x5e4(%rbp),%esi
   5c995:	mov    %r13,%r15
   5c998:	mov    %esi,%fs:(%rax)
   5c99b:	mov    -0x5e8(%rbp),%eax
   5c9a1:	mov    $0x1,%r13d
   5c9a7:	test   %eax,%eax
   5c9a9:	jne    5c9b8 <_IO_vfscanf+0x498>
   5c9ab:	movl   $0xffffffff,-0x5e8(%rbp)
   5c9b5:	nopl   (%rax)
   5c9b8:	testl  $0x8000,(%r15)
   5c9bf:	jne    5ca00 <_IO_vfscanf+0x4e0>
   5c9c1:	mov    0x88(%r15),%rdx
   5c9c8:	subl   $0x1,0x4(%rdx)
   5c9cc:	jne    5ca00 <_IO_vfscanf+0x4e0>
   5c9ce:	movq   $0x0,0x8(%rdx)
   5c9d6:	cmpl   $0x0,0x368d23(%rip)        # 3c5700 <__libc_multiple_threads>
   5c9dd:	je     5c9e6 <_IO_vfscanf+0x4c6>
   5c9df:	lock decl (%rdx)
   5c9e2:	jne    5c9ea <_IO_vfscanf+0x4ca>
   5c9e4:	jmp    5ca00 <_IO_vfscanf+0x4e0>
   5c9e6:	decl   (%rdx)
   5c9e8:	je     5ca00 <_IO_vfscanf+0x4e0>
   5c9ea:	lea    (%rdx),%rdi
   5c9ed:	sub    $0x80,%rsp
   5c9f4:	callq  115f70 <__lll_unlock_wake_private>
   5c9f9:	add    $0x80,%rsp
   5ca00:	mov    -0x5f0(%rbp),%eax
   5ca06:	test   %eax,%eax
   5ca08:	jne    5ca68 <_IO_vfscanf+0x548>
   5ca0a:	mov    -0x610(%rbp),%rax
   5ca11:	mov    -0x440(%rbp),%rdi
   5ca18:	add    $0x20,%rax
   5ca1c:	cmp    %rax,%rdi
   5ca1f:	je     5ca26 <_IO_vfscanf+0x506>
   5ca21:	callq  1f9c0 <*ABS*+0x911b0@plt+0x40>
   5ca26:	mov    -0x618(%rbp),%rax
   5ca2d:	test   %rax,%rax
   5ca30:	je     5ca35 <_IO_vfscanf+0x515>
   5ca32:	or     %r13d,(%rax)
   5ca35:	cmpl   $0xffffffff,-0x5e8(%rbp)
   5ca3c:	je     5ced8 <_IO_vfscanf+0x9b8>
   5ca42:	cmpq   $0x0,-0x608(%rbp)
   5ca4a:	jne    5cf38 <_IO_vfscanf+0xa18>
   5ca50:	mov    -0x5e8(%rbp),%eax
   5ca56:	lea    -0x28(%rbp),%rsp
   5ca5a:	pop    %rbx
   5ca5b:	pop    %r12
   5ca5d:	pop    %r13
   5ca5f:	pop    %r14
   5ca61:	pop    %r15
   5ca63:	pop    %rbp
   5ca64:	retq   
   5ca65:	nopl   (%rax)
   5ca68:	mov    0x368c49(%rip),%rax        # 3c56b8 <__libc_pthread_functions+0x178>
   5ca6f:	lea    -0x590(%rbp),%rdi
   5ca76:	xor    %esi,%esi
   5ca78:	ror    $0x11,%rax
   5ca7c:	xor    %fs:0x30,%rax
   5ca85:	callq  *%rax
   5ca87:	jmp    5ca0a <_IO_vfscanf+0x4ea>
   5ca89:	nopl   0x0(%rax)
   5ca90:	mov    0x368c19(%rip),%rax        # 3c56b0 <__libc_pthread_functions+0x170>
   5ca97:	lea    -0x590(%rbp),%rdi
   5ca9e:	mov    %r15,%rdx
   5caa1:	ror    $0x11,%rax
   5caa5:	xor    %fs:0x30,%rax
   5caae:	mov    0x3634b3(%rip),%rsi        # 3bff68 <_DYNAMIC+0x408>
   5cab5:	callq  *%rax
   5cab7:	mov    (%r15),%eax
   5caba:	jmpq   5c62a <_IO_vfscanf+0x10a>
   5cabf:	nop
   5cac0:	movl   $0x0,-0x638(%rbp)
   5caca:	xor    %ecx,%ecx
   5cacc:	cmpq   $0x0,-0x620(%rbp)
   5cad4:	movabs $0x400000009,%rdx
   5cade:	je     5cb33 <_IO_vfscanf+0x613>
   5cae0:	movzbl (%r15),%ebx
   5cae4:	lea    -0x27(%rbx),%eax
   5cae7:	cmp    $0x22,%al
   5cae9:	jbe    5cb68 <_IO_vfscanf+0x648>
   5caeb:	movzbl %bl,%eax
   5caee:	mov    %ecx,-0x5ec(%rbp)
   5caf4:	mov    $0xffffffff,%r12d
   5cafa:	sub    $0x30,%eax
   5cafd:	cmp    $0x9,%eax
   5cb00:	ja     5c95f <_IO_vfscanf+0x43f>
   5cb06:	xor    %r12d,%r12d
   5cb09:	nopl   0x0(%rax)
   5cb10:	lea    (%r12,%r12,4),%edx
   5cb14:	add    $0x1,%r15
   5cb18:	lea    (%rax,%rdx,2),%r12d
   5cb1c:	movzbl (%r15),%eax
   5cb20:	mov    %eax,%ebx
   5cb22:	sub    $0x30,%eax
   5cb25:	cmp    $0x9,%eax
   5cb28:	jbe    5cb10 <_IO_vfscanf+0x5f0>
   5cb2a:	jmpq   5c953 <_IO_vfscanf+0x433>
   5cb2f:	nop
   5cb30:	or     $0x8,%ecx
   5cb33:	movzbl (%r15),%ebx
   5cb37:	lea    -0x27(%rbx),%eax
   5cb3a:	cmp    $0x22,%al
   5cb3c:	ja     5caeb <_IO_vfscanf+0x5cb>
   5cb3e:	bt     %rax,%rdx
   5cb42:	jae    5caeb <_IO_vfscanf+0x5cb>
   5cb44:	add    $0x1,%r15
   5cb48:	cmp    $0x2a,%bl
   5cb4b:	je     5cb30 <_IO_vfscanf+0x610>
   5cb4d:	mov    %ecx,%eax
   5cb4f:	or     $0x4,%ah
   5cb52:	cmp    $0x49,%bl
   5cb55:	movzbl (%r15),%ebx
   5cb59:	cmove  %eax,%ecx
   5cb5c:	lea    -0x27(%rbx),%eax
   5cb5f:	cmp    $0x22,%al
   5cb61:	ja     5caeb <_IO_vfscanf+0x5cb>
   5cb63:	jmp    5cb3e <_IO_vfscanf+0x61e>
   5cb65:	nopl   (%rax)
   5cb68:	bt     %rax,%rdx
   5cb6c:	jae    5caeb <_IO_vfscanf+0x5cb>
   5cb72:	add    $0x1,%r15
   5cb76:	cmp    $0x2a,%bl
   5cb79:	je     5cb90 <_IO_vfscanf+0x670>
   5cb7b:	cmp    $0x49,%bl
   5cb7e:	je     5cba0 <_IO_vfscanf+0x680>
   5cb80:	mov    %ecx,%eax
   5cb82:	or     $0x80,%al
   5cb84:	cmp    $0x27,%bl
   5cb87:	cmove  %eax,%ecx
   5cb8a:	jmpq   5cae0 <_IO_vfscanf+0x5c0>
   5cb8f:	nop
   5cb90:	or     $0x8,%ecx
   5cb93:	jmpq   5cae0 <_IO_vfscanf+0x5c0>
   5cb98:	nopl   0x0(%rax,%rax,1)
   5cba0:	or     $0x4,%ch
   5cba3:	jmpq   5cae0 <_IO_vfscanf+0x5c0>
   5cba8:	nopl   0x0(%rax,%rax,1)
   5cbb0:	mov    0x3632b1(%rip),%rax        # 3bfe68 <_DYNAMIC+0x308>
   5cbb7:	mov    -0x5e4(%rbp),%esi
   5cbbd:	mov    %r13,%r15
   5cbc0:	mov    %esi,%fs:(%rax)
   5cbc3:	mov    -0x5e8(%rbp),%r14d
   5cbca:	mov    $0x1,%r13d
   5cbd0:	test   %r14d,%r14d
   5cbd3:	jne    5c9b8 <_IO_vfscanf+0x498>
   5cbd9:	movl   $0xffffffff,-0x5e8(%rbp)
   5cbe3:	jmpq   5c9b8 <_IO_vfscanf+0x498>
   5cbe8:	nopl   0x0(%rax,%rax,1)
   5cbf0:	movzbl (%rbx),%r12d
   5cbf4:	jmpq   5c6d3 <_IO_vfscanf+0x1b3>
   5cbf9:	nopl   0x0(%rax)
   5cc00:	orl    $0x1,-0x5ec(%rbp)
   5cc07:	movzbl 0x1(%r15),%ebx
   5cc0c:	test   %bl,%bl
   5cc0e:	je     5e5ef <_IO_vfscanf+0x20cf>
   5cc14:	mov    -0x600(%rbp),%ecx
   5cc1a:	lea    0x1(%rdx),%r15
   5cc1e:	test   %ecx,%ecx
   5cc20:	jne    5cc2d <_IO_vfscanf+0x70d>
   5cc22:	lea    -0x43(%rbx),%eax
   5cc25:	cmp    $0x2b,%al
   5cc27:	jbe    5cdbc <_IO_vfscanf+0x89c>
   5cc2d:	mov    0x363234(%rip),%rax        # 3bfe68 <_DYNAMIC+0x308>
   5cc34:	mov    %r12d,-0x600(%rbp)
   5cc3b:	mov    $0xffffffff,%r8d
   5cc41:	mov    %bl,-0x678(%rbp)
   5cc47:	mov    -0x5e4(%rbp),%r12d
   5cc4e:	mov    -0x5f8(%rbp),%rbx
   5cc55:	mov    %fs:(%rax),%esi
   5cc58:	mov    %rax,%r9
   5cc5b:	mov    %rax,-0x628(%rbp)
   5cc62:	movl   $0x0,%fs:(%rax)
   5cc69:	mov    %r10d,%eax
   5cc6c:	jmp    5cc9b <_IO_vfscanf+0x77b>
   5cc6e:	xchg   %ax,%ax
   5cc70:	mov    0x8(%r13),%rax
   5cc74:	cmp    0x10(%r13),%rax
   5cc78:	jae    5ce20 <_IO_vfscanf+0x900>
   5cc7e:	lea    0x1(%rax),%rcx
   5cc82:	add    $0x1,%r14
   5cc86:	mov    %rcx,0x8(%r13)
   5cc8a:	movzbl (%rax),%eax
   5cc8d:	mov    0x68(%rbx),%rdi
   5cc91:	movslq %eax,%rcx
   5cc94:	testb  $0x20,0x1(%rdi,%rcx,2)
   5cc99:	je     5ccbe <_IO_vfscanf+0x79e>
   5cc9b:	cmp    $0xffffffff,%eax
   5cc9e:	jne    5cc70 <_IO_vfscanf+0x750>
   5cca0:	mov    %fs:(%r9),%eax
   5cca4:	cmp    $0x4,%eax
   5cca7:	je     5ce77 <_IO_vfscanf+0x957>
   5ccad:	mov    0x68(%rbx),%rdi
   5ccb1:	mov    %r8d,%eax
   5ccb4:	movslq %eax,%rcx
   5ccb7:	testb  $0x20,0x1(%rdi,%rcx,2)
   5ccbc:	jne    5cc9b <_IO_vfscanf+0x77b>
   5ccbe:	mov    %eax,%r10d
   5ccc1:	mov    -0x628(%rbp),%rax
   5ccc8:	mov    %r12d,-0x5e4(%rbp)
   5cccf:	cmp    $0xffffffff,%r10d
   5ccd3:	mov    -0x600(%rbp),%r12d
   5ccda:	movzbl -0x678(%rbp),%ebx
   5cce1:	mov    %esi,%fs:(%rax)
   5cce4:	je     5cf58 <_IO_vfscanf+0xa38>
   5ccea:	lea    -0x1(%r14),%r8
   5ccee:	movzbl %r10b,%esi
   5ccf2:	mov    %r13,%rdi
   5ccf5:	sub    $0x25,%ebx
   5ccf8:	mov    %rdx,-0x688(%rbp)
   5ccff:	mov    %r10d,-0x600(%rbp)
   5cd06:	mov    %r8,-0x678(%rbp)
   5cd0d:	callq  7e5a0 <_IO_sputbackc>
   5cd12:	cmp    $0x53,%bl
   5cd15:	ja     5e17e <_IO_vfscanf+0x1c5e>
   5cd1b:	lea    0x126bb6(%rip),%rcx        # 1838d8 <jump_table+0x118>
   5cd22:	movzbl %bl,%ebx
   5cd25:	mov    -0x600(%rbp),%r10d
   5cd2c:	mov    -0x678(%rbp),%r8
   5cd33:	mov    -0x688(%rbp),%rdx
   5cd3a:	movslq (%rcx,%rbx,4),%rax
   5cd3e:	add    %rcx,%rax
   5cd41:	jmpq   *%rax
   5cd43:	nopl   0x0(%rax,%rax,1)
   5cd48:	add    $0x1,%r15
   5cd4c:	jmpq   5caca <_IO_vfscanf+0x5aa>
   5cd51:	movzbl 0x1(%r15),%ebx
   5cd56:	cmp    $0x6c,%bl
   5cd59:	je     5de3c <_IO_vfscanf+0x191c>
   5cd5f:	orl    $0x1,-0x5ec(%rbp)
   5cd66:	jmpq   5cc0c <_IO_vfscanf+0x6ec>
   5cd6b:	movzbl 0x1(%r15),%ebx
   5cd70:	cmp    $0x68,%bl
   5cd73:	je     5de69 <_IO_vfscanf+0x1949>
   5cd79:	orl    $0x4,-0x5ec(%rbp)
   5cd80:	jmpq   5cc0c <_IO_vfscanf+0x6ec>
   5cd85:	movzbl 0x1(%r15),%eax
   5cd8a:	mov    %eax,%ecx
   5cd8c:	and    $0xfffffff7,%ecx
   5cd8f:	cmp    $0x53,%cl
   5cd92:	je     5de8f <_IO_vfscanf+0x196f>
   5cd98:	cmp    $0x73,%al
   5cd9a:	je     5de8f <_IO_vfscanf+0x196f>
   5cda0:	mov    %rdx,%rax
   5cda3:	mov    %r15,%rdx
   5cda6:	mov    %rax,%r15
   5cda9:	mov    -0x600(%rbp),%eax
   5cdaf:	test   %eax,%eax
   5cdb1:	jne    5cc2d <_IO_vfscanf+0x70d>
   5cdb7:	mov    $0x1e,%eax
   5cdbc:	movabs $0x80101000001,%rcx
   5cdc6:	bt     %rax,%rcx
   5cdca:	jae    5cc2d <_IO_vfscanf+0x70d>
   5cdd0:	sub    $0x43,%ebx
   5cdd3:	cmp    $0x2b,%bl
   5cdd6:	ja     5de81 <_IO_vfscanf+0x1961>
   5cddc:	lea    0x126c45(%rip),%rcx        # 183a28 <jump_table+0x268>
   5cde3:	movzbl %bl,%ebx
   5cde6:	movslq (%rcx,%rbx,4),%rax
   5cdea:	add    %rcx,%rax
   5cded:	jmpq   *%rax
   5cdef:	orl    $0x3,-0x5ec(%rbp)
   5cdf6:	movzbl 0x1(%r15),%ebx
   5cdfb:	jmpq   5cc0c <_IO_vfscanf+0x6ec>
   5ce00:	movzbl 0x1(%r15),%ebx
   5ce05:	cmp    $0x6c,%bl
   5ce08:	je     5de51 <_IO_vfscanf+0x1931>
   5ce0e:	orl    $0x2000,-0x5ec(%rbp)
   5ce18:	jmpq   5cc0c <_IO_vfscanf+0x6ec>
   5ce1d:	nopl   (%rax)
   5ce20:	mov    %r13,%rdi
   5ce23:	mov    %r9,-0x698(%rbp)
   5ce2a:	mov    %esi,-0x690(%rbp)
   5ce30:	mov    %rdx,-0x688(%rbp)
   5ce37:	mov    %r8d,-0x5e4(%rbp)
   5ce3e:	callq  7d720 <__uflow>
   5ce43:	cmp    $0xffffffff,%eax
   5ce46:	mov    -0x5e4(%rbp),%r8d
   5ce4d:	mov    -0x688(%rbp),%rdx
   5ce54:	mov    -0x690(%rbp),%esi
   5ce5a:	mov    -0x698(%rbp),%r9
   5ce61:	jne    63716 <_IO_vfscanf+0x71f6>
   5ce67:	mov    %fs:(%r9),%r12d
   5ce6b:	mov    %r12d,%eax
   5ce6e:	cmp    $0x4,%eax
   5ce71:	jne    5ccad <_IO_vfscanf+0x78d>
   5ce77:	mov    -0x5e8(%rbp),%edx
   5ce7d:	mov    %r13,%r15
   5ce80:	mov    $0x1,%r13d
   5ce86:	test   %edx,%edx
   5ce88:	jne    5c9b8 <_IO_vfscanf+0x498>
   5ce8e:	movl   $0xffffffff,-0x5e8(%rbp)
   5ce98:	jmpq   5c9b8 <_IO_vfscanf+0x498>
   5ce9d:	nopl   (%rax)
   5cea0:	mov    %r13,%rdi
   5cea3:	callq  7d720 <__uflow>
   5cea8:	cmp    $0xffffffff,%eax
   5ceab:	jne    63dc8 <_IO_vfscanf+0x78a8>
   5ceb1:	mov    -0x5e8(%rbp),%edi
   5ceb7:	mov    %r13,%r15
   5ceba:	mov    -0x600(%rbp),%r13d
   5cec1:	test   %edi,%edi
   5cec3:	cmovne %edi,%eax
   5cec6:	mov    %eax,-0x5e8(%rbp)
   5cecc:	jmpq   5c9b8 <_IO_vfscanf+0x498>
   5ced1:	nopl   0x0(%rax)
   5ced8:	cmpq   $0x0,-0x660(%rbp)
   5cee0:	mov    -0x660(%rbp),%r12
   5cee7:	je     5c849 <_IO_vfscanf+0x329>
   5ceed:	nopl   (%rax)
   5cef0:	xor    %ebx,%ebx
   5cef2:	cmpq   $0x0,(%r12)
   5cef7:	je     5cf23 <_IO_vfscanf+0xa03>
   5cef9:	nopl   0x0(%rax)
   5cf00:	mov    0x10(%r12,%rbx,8),%rax
   5cf05:	mov    (%rax),%rdi
   5cf08:	callq  1f9c0 <*ABS*+0x911b0@plt+0x40>
   5cf0d:	mov    0x10(%r12,%rbx,8),%rax
   5cf12:	add    $0x1,%rbx
   5cf16:	cmp    %rbx,(%r12)
   5cf1a:	movq   $0x0,(%rax)
   5cf21:	ja     5cf00 <_IO_vfscanf+0x9e0>
   5cf23:	mov    0x8(%r12),%r12
   5cf28:	test   %r12,%r12
   5cf2b:	jne    5cef0 <_IO_vfscanf+0x9d0>
   5cf2d:	jmpq   5c849 <_IO_vfscanf+0x329>
   5cf32:	nopw   0x0(%rax,%rax,1)
   5cf38:	mov    -0x608(%rbp),%rbx
   5cf3f:	mov    (%rbx),%rdi
   5cf42:	callq  1f9c0 <*ABS*+0x911b0@plt+0x40>
   5cf47:	movq   $0x0,(%rbx)
   5cf4e:	jmpq   5ca50 <_IO_vfscanf+0x530>
   5cf53:	nopl   0x0(%rax,%rax,1)
   5cf58:	sub    $0x25,%ebx
   5cf5b:	cmp    $0x53,%bl
   5cf5e:	ja     5e18c <_IO_vfscanf+0x1c6c>
   5cf64:	lea    0x126b6d(%rip),%rcx        # 183ad8 <jump_table+0x318>
   5cf6b:	movzbl %bl,%ebx
   5cf6e:	movslq (%rcx,%rbx,4),%rax
   5cf72:	add    %rcx,%rax
   5cf75:	jmpq   *%rax
   5cf77:	mov    %r15,%rdx
   5cf7a:	jmpq   5cc0c <_IO_vfscanf+0x6ec>
   5cf7f:	mov    -0x628(%rbp),%rdx
   5cf86:	mov    %r13,%r15
   5cf89:	mov    -0x5e4(%rbp),%eax
   5cf8f:	mov    %eax,%fs:(%rdx)
   5cf92:	mov    -0x5e8(%rbp),%r8d
   5cf99:	mov    $0x1,%r13d
   5cf9f:	test   %r8d,%r8d
   5cfa2:	jne    5c9b8 <_IO_vfscanf+0x498>
   5cfa8:	movl   $0xffffffff,-0x5e8(%rbp)
   5cfb2:	jmpq   5c9b8 <_IO_vfscanf+0x498>
   5cfb7:	mov    %r8,%r14
   5cfba:	mov    -0x5ec(%rbp),%esi
   5cfc0:	mov    %esi,%eax
   5cfc2:	and    $0x8,%eax
   5cfc5:	mov    %eax,-0x600(%rbp)
   5cfcb:	jne    5d08a <_IO_vfscanf+0xb6a>
   5cfd1:	mov    %esi,%eax
   5cfd3:	test   $0x21,%ah
   5cfd6:	je     5f5a8 <_IO_vfscanf+0x3088>
   5cfdc:	mov    -0x638(%rbp),%eax
   5cfe2:	test   %eax,%eax
   5cfe4:	jne    5fc48 <_IO_vfscanf+0x3728>
   5cfea:	mov    -0x5a8(%rbp),%edx
   5cff0:	cmp    $0x2f,%edx
   5cff3:	ja     620fb <_IO_vfscanf+0x5bdb>
   5cff9:	mov    %edx,%eax
   5cffb:	add    -0x598(%rbp),%rax
   5d002:	add    $0x8,%edx
   5d005:	mov    %edx,-0x5a8(%rbp)
   5d00b:	mov    (%rax),%rax
   5d00e:	mov    %rax,-0x608(%rbp)
   5d015:	mov    %rax,%rbx
   5d018:	test   %rbx,%rbx
   5d01b:	mov    %r10d,-0x628(%rbp)
   5d022:	je     620a0 <_IO_vfscanf+0x5b80>
   5d028:	mov    $0x190,%edi
   5d02d:	callq  1f998 <*ABS*+0x911b0@plt+0x18>
   5d032:	test   %rax,%rax
   5d035:	mov    %rax,(%rbx)
   5d038:	je     61200 <_IO_vfscanf+0x4ce0>
   5d03e:	mov    -0x660(%rbp),%rdi
   5d045:	mov    -0x628(%rbp),%r10d
   5d04c:	test   %rdi,%rdi
   5d04f:	je     609ef <_IO_vfscanf+0x44cf>
   5d055:	mov    (%rdi),%rdx
   5d058:	cmp    $0x20,%rdx
   5d05c:	je     609ef <_IO_vfscanf+0x44cf>
   5d062:	lea    0x1(%rdx),%rcx
   5d066:	mov    %rdi,%rsi
   5d069:	mov    -0x608(%rbp),%rdi
   5d070:	mov    %rcx,(%rsi)
   5d073:	mov    %rax,-0x640(%rbp)
   5d07a:	movq   $0x64,-0x658(%rbp)
   5d085:	mov    %rdi,0x10(%rsi,%rdx,8)
   5d08a:	cmp    $0xffffffff,%r10d
   5d08e:	je     5f2ce <_IO_vfscanf+0x2dae>
   5d094:	mov    0x8(%r13),%rax
   5d098:	cmp    0x10(%r13),%rax
   5d09c:	jae    60a24 <_IO_vfscanf+0x4504>
   5d0a2:	lea    0x1(%rax),%rdx
   5d0a6:	mov    %rdx,0x8(%r13)
   5d0aa:	movzbl (%rax),%r10d
   5d0ae:	mov    -0x630(%rbp),%rax
   5d0b5:	mov    -0x5f8(%rbp),%rdi
   5d0bc:	add    $0x1,%r14
   5d0c0:	movq   $0x0,(%rax)
   5d0c7:	mov    0x68(%rdi),%rdx
   5d0cb:	movslq %r10d,%rax
   5d0ce:	testb  $0x20,0x1(%rdx,%rax,2)
   5d0d3:	jne    5edc8 <_IO_vfscanf+0x28a8>
   5d0d9:	mov    -0x5ec(%rbp),%eax
   5d0df:	mov    %r15,-0x638(%rbp)
   5d0e6:	mov    -0x630(%rbp),%r15
   5d0ed:	mov    %r12d,-0x678(%rbp)
   5d0f4:	mov    %r10d,%r12d
   5d0f7:	and    $0x2100,%eax
   5d0fc:	mov    %eax,-0x688(%rbp)
   5d102:	lea    -0x570(%rbp),%rax
   5d109:	mov    %rax,-0x628(%rbp)
   5d110:	mov    -0x600(%rbp),%eax
   5d116:	mov    $0x0,%ebx
   5d11b:	mov    %r12b,-0x570(%rbp)
   5d122:	test   %eax,%eax
   5d124:	cmove  -0x640(%rbp),%rbx
   5d12c:	mov    %r13,%rax
   5d12f:	mov    %r12d,%r13d
   5d132:	mov    %rax,%r12
   5d135:	nopl   (%rax)
   5d138:	mov    -0x628(%rbp),%rsi
   5d13f:	mov    %r15,%rcx
   5d142:	mov    $0x1,%edx
   5d147:	mov    %rbx,%rdi
   5d14a:	callq  ac400 <__mbrtowc>
   5d14f:	cmp    $0xfffffffffffffffe,%rax
   5d153:	jne    5ed14 <_IO_vfscanf+0x27f4>
   5d159:	mov    0x8(%r12),%rax
   5d15e:	cmp    0x10(%r12),%rax
   5d163:	jae    5e7a6 <_IO_vfscanf+0x2286>
   5d169:	lea    0x1(%rax),%rdx
   5d16d:	mov    %rdx,0x8(%r12)
   5d172:	movzbl (%rax),%r13d
   5d176:	add    $0x1,%r14
   5d17a:	mov    %r13b,-0x570(%rbp)
   5d181:	jmp    5d138 <_IO_vfscanf+0xc18>
   5d183:	mov    %r8,%r14
   5d186:	mov    -0x5ec(%rbp),%edi
   5d18c:	cmp    $0xffffffff,%r12d
   5d190:	mov    $0x1,%eax
   5d195:	cmove  %eax,%r12d
   5d199:	mov    %edi,%eax
   5d19b:	and    $0x8,%eax
   5d19e:	mov    %eax,-0x600(%rbp)
   5d1a4:	jne    5d274 <_IO_vfscanf+0xd54>
   5d1aa:	mov    %edi,%eax
   5d1ac:	test   $0x21,%ah
   5d1af:	je     5f54e <_IO_vfscanf+0x302e>
   5d1b5:	mov    -0x638(%rbp),%ebx
   5d1bb:	test   %ebx,%ebx
   5d1bd:	jne    5fca0 <_IO_vfscanf+0x3780>
   5d1c3:	mov    -0x5a8(%rbp),%edx
   5d1c9:	cmp    $0x2f,%edx
   5d1cc:	ja     63741 <_IO_vfscanf+0x7221>
   5d1d2:	mov    %edx,%eax
   5d1d4:	add    -0x598(%rbp),%rax
   5d1db:	add    $0x8,%edx
   5d1de:	mov    %edx,-0x5a8(%rbp)
   5d1e4:	mov    (%rax),%rax
   5d1e7:	mov    %rax,-0x608(%rbp)
   5d1ee:	mov    %rax,%rbx
   5d1f1:	test   %rbx,%rbx
   5d1f4:	mov    %r10d,-0x628(%rbp)
   5d1fb:	je     63733 <_IO_vfscanf+0x7213>
   5d201:	cmp    $0x400,%r12d
   5d208:	mov    $0x400,%eax
   5d20d:	cmovle %r12d,%eax
   5d211:	cltq   
   5d213:	lea    0x0(,%rax,4),%rdi
   5d21b:	mov    %rax,-0x658(%rbp)
   5d222:	callq  1f998 <*ABS*+0x911b0@plt+0x18>
   5d227:	test   %rax,%rax
   5d22a:	mov    %rax,(%rbx)
   5d22d:	je     61683 <_IO_vfscanf+0x5163>
   5d233:	mov    -0x660(%rbp),%rdi
   5d23a:	mov    -0x628(%rbp),%r10d
   5d241:	test   %rdi,%rdi
   5d244:	je     6101e <_IO_vfscanf+0x4afe>
   5d24a:	mov    (%rdi),%rdx
   5d24d:	cmp    $0x20,%rdx
   5d251:	je     6101e <_IO_vfscanf+0x4afe>
   5d257:	lea    0x1(%rdx),%rcx
   5d25b:	mov    %rdi,%rsi
   5d25e:	mov    -0x608(%rbp),%rdi
   5d265:	mov    %rcx,(%rsi)
   5d268:	mov    %rax,-0x640(%rbp)
   5d26f:	mov    %rdi,0x10(%rsi,%rdx,8)
   5d274:	cmp    $0xffffffff,%r10d
   5d278:	je     5f306 <_IO_vfscanf+0x2de6>
   5d27e:	mov    0x8(%r13),%rax
   5d282:	cmp    0x10(%r13),%rax
   5d286:	jae    609d3 <_IO_vfscanf+0x44b3>
   5d28c:	lea    0x1(%rax),%rdx
   5d290:	mov    %rdx,0x8(%r13)
   5d294:	movzbl (%rax),%r10d
   5d298:	mov    -0x630(%rbp),%rax
   5d29f:	add    $0x1,%r14
   5d2a3:	movq   $0x0,-0x638(%rbp)
   5d2ae:	mov    %r15,-0x678(%rbp)
   5d2b5:	mov    %r10d,%ebx
   5d2b8:	movq   $0x0,(%rax)
   5d2bf:	mov    -0x5ec(%rbp),%eax
   5d2c5:	and    $0x2100,%eax
   5d2ca:	mov    %eax,-0x5ec(%rbp)
   5d2d0:	lea    -0x1(%r12),%eax
   5d2d5:	mov    %eax,-0x628(%rbp)
   5d2db:	movslq %r12d,%rax
   5d2de:	lea    -0x570(%rbp),%r12
   5d2e5:	mov    %rax,-0x688(%rbp)
   5d2ec:	mov    -0x600(%rbp),%r10d
   5d2f3:	mov    %bl,-0x570(%rbp)
   5d2f9:	test   %r10d,%r10d
   5d2fc:	jne    5d334 <_IO_vfscanf+0xe14>
   5d2fe:	mov    -0x5ec(%rbp),%r9d
   5d305:	test   %r9d,%r9d
   5d308:	je     5d334 <_IO_vfscanf+0xe14>
   5d30a:	mov    -0x608(%rbp),%rax
   5d311:	mov    (%rax),%rdi
   5d314:	mov    -0x658(%rbp),%rax
   5d31b:	lea    0x0(,%rax,4),%rdx
   5d323:	lea    (%rdi,%rdx,1),%rax
   5d327:	cmp    %rax,-0x640(%rbp)
   5d32e:	je     61142 <_IO_vfscanf+0x4c22>
   5d334:	mov    -0x600(%rbp),%r8d
   5d33b:	mov    $0x0,%r15d
   5d341:	mov    %r13,%rax
   5d344:	mov    %ebx,%r13d
   5d347:	mov    %rax,%rbx
   5d34a:	test   %r8d,%r8d
   5d34d:	cmove  -0x640(%rbp),%r15
   5d355:	nopl   (%rax)
   5d358:	mov    -0x630(%rbp),%rcx
   5d35f:	mov    $0x1,%edx
   5d364:	mov    %r12,%rsi
   5d367:	mov    %r15,%rdi
   5d36a:	callq  ac400 <__mbrtowc>
   5d36f:	cmp    $0xfffffffffffffffe,%rax
   5d373:	jne    5ee70 <_IO_vfscanf+0x2950>
   5d379:	mov    0x8(%rbx),%rax
   5d37d:	cmp    0x10(%rbx),%rax
   5d381:	jae    5e776 <_IO_vfscanf+0x2256>
   5d387:	lea    0x1(%rax),%rdx
   5d38b:	mov    %rdx,0x8(%rbx)
   5d38f:	movzbl (%rax),%r13d
   5d393:	add    $0x1,%r14
   5d397:	mov    %r13b,-0x570(%rbp)
   5d39e:	jmp    5d358 <_IO_vfscanf+0xe38>
   5d3a0:	mov    %r8,%r14
   5d3a3:	mov    -0x5ec(%rbp),%ebx
   5d3a9:	mov    %ebx,%eax
   5d3ab:	and    $0x1,%eax
   5d3ae:	mov    %eax,-0x600(%rbp)
   5d3b4:	jne    5d186 <_IO_vfscanf+0xc66>
   5d3ba:	cmp    $0xffffffff,%r12d
   5d3be:	mov    $0x1,%eax
   5d3c3:	cmove  %eax,%r12d
   5d3c7:	mov    %ebx,%eax
   5d3c9:	and    $0x8,%ebx
   5d3cc:	jne    5d499 <_IO_vfscanf+0xf79>
   5d3d2:	test   $0x21,%ah
   5d3d5:	je     60bd8 <_IO_vfscanf+0x46b8>
   5d3db:	mov    -0x638(%rbp),%eax
   5d3e1:	test   %eax,%eax
   5d3e3:	jne    6155c <_IO_vfscanf+0x503c>
   5d3e9:	mov    -0x5a8(%rbp),%edx
   5d3ef:	cmp    $0x2f,%edx
   5d3f2:	ja     62fbe <_IO_vfscanf+0x6a9e>
   5d3f8:	mov    %edx,%eax
   5d3fa:	add    -0x598(%rbp),%rax
   5d401:	add    $0x8,%edx
   5d404:	mov    %edx,-0x5a8(%rbp)
   5d40a:	mov    (%rax),%rax
   5d40d:	mov    %rax,-0x608(%rbp)
   5d414:	cmpq   $0x0,-0x608(%rbp)
   5d41c:	mov    %r10d,-0x628(%rbp)
   5d423:	je     62fb0 <_IO_vfscanf+0x6a90>
   5d429:	cmp    $0x400,%r12d
   5d430:	mov    $0x400,%eax
   5d435:	cmovle %r12d,%eax
   5d439:	movslq %eax,%rdi
   5d43c:	mov    %rdi,-0x658(%rbp)
   5d443:	callq  1f998 <*ABS*+0x911b0@plt+0x18>
   5d448:	mov    -0x608(%rbp),%rsi
   5d44f:	test   %rax,%rax
   5d452:	mov    %rax,(%rsi)
   5d455:	je     61eb3 <_IO_vfscanf+0x5993>
   5d45b:	mov    -0x660(%rbp),%rsi
   5d462:	mov    -0x628(%rbp),%r10d
   5d469:	test   %rsi,%rsi
   5d46c:	je     61b11 <_IO_vfscanf+0x55f1>
   5d472:	mov    (%rsi),%rdx
   5d475:	cmp    $0x20,%rdx
   5d479:	lea    0x1(%rdx),%rcx
   5d47d:	je     61b11 <_IO_vfscanf+0x55f1>
   5d483:	mov    -0x608(%rbp),%rdi
   5d48a:	mov    %rcx,(%rsi)
   5d48d:	mov    %rax,-0x668(%rbp)
   5d494:	mov    %rdi,0x10(%rsi,%rdx,8)
   5d499:	cmp    $0xffffffff,%r10d
   5d49d:	je     6093e <_IO_vfscanf+0x441e>
   5d4a3:	mov    0x8(%r13),%rax
   5d4a7:	cmp    0x10(%r13),%rax
   5d4ab:	jae    617ea <_IO_vfscanf+0x52ca>
   5d4b1:	lea    0x1(%rax),%rdx
   5d4b5:	mov    %rdx,0x8(%r13)
   5d4b9:	movzbl (%rax),%r10d
   5d4bd:	test   %ebx,%ebx
   5d4bf:	lea    0x1(%r14),%rax
   5d4c3:	je     5facd <_IO_vfscanf+0x35ad>
   5d4c9:	cmp    $0x1,%r12d
   5d4cd:	jle    63692 <_IO_vfscanf+0x7172>
   5d4d3:	lea    -0x2(%r12),%edx
   5d4d8:	lea    0x2(%r14,%rdx,1),%rbx
   5d4dd:	mov    %rax,%r14
   5d4e0:	jmp    5d4fa <_IO_vfscanf+0xfda>
   5d4e2:	lea    0x1(%rax),%rdx
   5d4e6:	mov    %rdx,0x8(%r13)
   5d4ea:	movzbl (%rax),%eax
   5d4ed:	add    $0x1,%r14
   5d4f1:	cmp    %rbx,%r14
   5d4f4:	je     6165f <_IO_vfscanf+0x513f>
   5d4fa:	mov    0x8(%r13),%rax
   5d4fe:	cmp    0x10(%r13),%rax
   5d502:	jb     5d4e2 <_IO_vfscanf+0xfc2>
   5d504:	mov    %r13,%rdi
   5d507:	callq  7d720 <__uflow>
   5d50c:	cmp    $0xffffffff,%eax
   5d50f:	jne    5d4ed <_IO_vfscanf+0xfcd>
   5d511:	mov    %eax,%r10d
   5d514:	mov    0x36294d(%rip),%rax        # 3bfe68 <_DYNAMIC+0x308>
   5d51b:	mov    %fs:(%rax),%eax
   5d51e:	mov    %eax,-0x5e4(%rbp)
   5d524:	jmpq   5c832 <_IO_vfscanf+0x312>
   5d529:	mov    %r8,%r14
   5d52c:	mov    -0x5ec(%rbp),%esi
   5d532:	mov    %esi,%eax
   5d534:	and    $0x8,%eax
   5d537:	mov    %eax,-0x600(%rbp)
   5d53d:	jne    5c77d <_IO_vfscanf+0x25d>
   5d543:	mov    %esi,%eax
   5d545:	test   $0x1,%al
   5d547:	je     5f865 <_IO_vfscanf+0x3345>
   5d54d:	mov    -0x638(%rbp),%eax
   5d553:	test   %eax,%eax
   5d555:	jne    60f19 <_IO_vfscanf+0x49f9>
   5d55b:	mov    -0x5a8(%rbp),%edx
   5d561:	cmp    $0x2f,%edx
   5d564:	ja     639d0 <_IO_vfscanf+0x74b0>
   5d56a:	mov    %edx,%eax
   5d56c:	add    -0x598(%rbp),%rax
   5d573:	add    $0x8,%edx
   5d576:	mov    %edx,-0x5a8(%rbp)
   5d57c:	mov    (%rax),%rax
   5d57f:	mov    %r14,(%rax)
   5d582:	jmpq   5c832 <_IO_vfscanf+0x312>
   5d587:	mov    %r8,%r14
   5d58a:	mov    -0x5ec(%rbp),%esi
   5d590:	mov    %esi,%eax
   5d592:	and    $0x1,%eax
   5d595:	mov    %eax,-0x600(%rbp)
   5d59b:	mov    %esi,%eax
   5d59d:	je     5f068 <_IO_vfscanf+0x2b48>
   5d5a3:	and    $0x8,%eax
   5d5a6:	mov    %eax,-0x678(%rbp)
   5d5ac:	jne    5d67d <_IO_vfscanf+0x115d>
   5d5b2:	mov    %esi,%eax
   5d5b4:	test   $0x21,%ah
   5d5b7:	je     60e71 <_IO_vfscanf+0x4951>
   5d5bd:	mov    -0x638(%rbp),%eax
   5d5c3:	test   %eax,%eax
   5d5c5:	jne    610dd <_IO_vfscanf+0x4bbd>
   5d5cb:	mov    -0x5a8(%rbp),%ecx
   5d5d1:	cmp    $0x2f,%ecx
   5d5d4:	ja     63195 <_IO_vfscanf+0x6c75>
   5d5da:	mov    %ecx,%eax
   5d5dc:	add    -0x598(%rbp),%rax
   5d5e3:	add    $0x8,%ecx
   5d5e6:	mov    %ecx,-0x5a8(%rbp)
   5d5ec:	mov    (%rax),%rax
   5d5ef:	mov    %rax,-0x608(%rbp)
   5d5f6:	mov    %rax,%rbx
   5d5f9:	test   %rbx,%rbx
   5d5fc:	mov    %r10d,-0x638(%rbp)
   5d603:	mov    %rdx,-0x628(%rbp)
   5d60a:	je     63187 <_IO_vfscanf+0x6c67>
   5d610:	mov    $0x190,%edi
   5d615:	callq  1f998 <*ABS*+0x911b0@plt+0x18>
   5d61a:	test   %rax,%rax
   5d61d:	mov    %rax,(%rbx)
   5d620:	je     61e7d <_IO_vfscanf+0x595d>
   5d626:	mov    -0x660(%rbp),%rsi
   5d62d:	mov    -0x628(%rbp),%rdx
   5d634:	mov    -0x638(%rbp),%r10d
   5d63b:	test   %rsi,%rsi
   5d63e:	je     61e48 <_IO_vfscanf+0x5928>
   5d644:	mov    (%rsi),%rcx
   5d647:	cmp    $0x20,%rcx
   5d64b:	lea    0x1(%rcx),%rsi
   5d64f:	je     61e48 <_IO_vfscanf+0x5928>
   5d655:	mov    -0x660(%rbp),%rdi
   5d65c:	mov    %rax,-0x640(%rbp)
   5d663:	movq   $0x64,-0x658(%rbp)
   5d66e:	mov    %rsi,(%rdi)
   5d671:	mov    -0x608(%rbp),%rsi
   5d678:	mov    %rsi,0x10(%rdi,%rcx,8)
   5d67d:	cmpb   $0x5e,0x1(%rdx)
   5d681:	movb   $0x0,-0x638(%rbp)
   5d688:	je     5f75d <_IO_vfscanf+0x323d>
   5d68e:	test   %r12d,%r12d
   5d691:	mov    $0x7fffffff,%eax
   5d696:	mov    $0x1,%edx
   5d69b:	cmovs  %eax,%r12d
   5d69f:	mov    -0x610(%rbp),%rax
   5d6a6:	mov    $0x100,%esi
   5d6ab:	mov    %r10d,-0x628(%rbp)
   5d6b2:	lea    0x10(%rax),%rdi
   5d6b6:	callq  8b060 <__libc_scratch_buffer_set_array_size>
   5d6bb:	test   %al,%al
   5d6bd:	je     610c0 <_IO_vfscanf+0x4ba0>
   5d6c3:	mov    -0x440(%rbp),%rax
   5d6ca:	lea    0x8(%rax),%rdi
   5d6ce:	movq   $0x0,(%rax)
   5d6d5:	movq   $0x0,0xf8(%rax)
   5d6e0:	and    $0xfffffffffffffff8,%rdi
   5d6e4:	sub    %rdi,%rax
   5d6e7:	lea    0x100(%rax),%ecx
   5d6ed:	xor    %eax,%eax
   5d6ef:	shr    $0x3,%ecx
   5d6f2:	rep stos %rax,%es:(%rdi)
   5d6f5:	movzbl (%r15),%eax
   5d6f9:	mov    -0x628(%rbp),%r10d
   5d700:	cmp    $0x5d,%al
   5d702:	je     5f354 <_IO_vfscanf+0x2e34>
   5d708:	cmp    $0x2d,%al
   5d70a:	jne    5d723 <_IO_vfscanf+0x1203>
   5d70c:	jmpq   5f354 <_IO_vfscanf+0x2e34>
   5d711:	nopl   0x0(%rax)
   5d718:	mov    -0x440(%rbp),%rdx
   5d71f:	movb   $0x1,(%rdx,%rax,1)
   5d723:	add    $0x1,%r15
   5d727:	movzbl -0x1(%r15),%eax
   5d72c:	test   %al,%al
   5d72e:	je     5f1a6 <_IO_vfscanf+0x2c86>
   5d734:	cmp    $0x5d,%al
   5d736:	je     5e848 <_IO_vfscanf+0x2328>
   5d73c:	cmp    $0x2d,%al
   5d73e:	jne    5d718 <_IO_vfscanf+0x11f8>
   5d740:	movzbl (%r15),%ecx
   5d744:	cmp    $0x5d,%cl
   5d747:	je     5d718 <_IO_vfscanf+0x11f8>
   5d749:	test   %cl,%cl
   5d74b:	je     5d718 <_IO_vfscanf+0x11f8>
   5d74d:	movzbl -0x2(%r15),%edx
   5d752:	cmp    %cl,%dl
   5d754:	ja     5d718 <_IO_vfscanf+0x11f8>
   5d756:	jae    5d723 <_IO_vfscanf+0x1203>
   5d758:	nopl   0x0(%rax,%rax,1)
   5d760:	mov    -0x440(%rbp),%rcx
   5d767:	movzbl %dl,%eax
   5d76a:	add    $0x1,%edx
   5d76d:	movb   $0x1,(%rcx,%rax,1)
   5d771:	cmp    %dl,(%r15)
   5d774:	ja     5d760 <_IO_vfscanf+0x1240>
   5d776:	jmp    5d723 <_IO_vfscanf+0x1203>
   5d778:	mov    %r14,%r8
   5d77b:	movl   $0x10,-0x600(%rbp)
   5d785:	cmp    $0xffffffff,%r10d
   5d789:	je     5e743 <_IO_vfscanf+0x2223>
   5d78f:	mov    0x8(%r13),%rax
   5d793:	cmp    0x10(%r13),%rax
   5d797:	jae    5f2a4 <_IO_vfscanf+0x2d84>
   5d79d:	lea    0x1(%rax),%rdx
   5d7a1:	mov    %rdx,0x8(%r13)
   5d7a5:	movzbl (%rax),%r10d
   5d7a9:	lea    -0x2b(%r10),%eax
   5d7ad:	lea    0x1(%r8),%r14
   5d7b1:	and    $0xfffffffd,%eax
   5d7b4:	jne    5d804 <_IO_vfscanf+0x12e4>
   5d7b6:	mov    -0x450(%rbp),%rax
   5d7bd:	mov    -0x448(%rbp),%rbx
   5d7c4:	cmp    %rax,%rbx
   5d7c7:	je     5f6eb <_IO_vfscanf+0x31cb>
   5d7cd:	lea    0x1(%rax),%rdx
   5d7d1:	mov    %rdx,-0x450(%rbp)
   5d7d8:	mov    %r10b,(%rax)
   5d7db:	xor    %eax,%eax
   5d7dd:	test   %r12d,%r12d
   5d7e0:	setg   %al
   5d7e3:	sub    %eax,%r12d
   5d7e6:	mov    0x8(%r13),%rax
   5d7ea:	cmp    0x10(%r13),%rax
   5d7ee:	jae    5e5a8 <_IO_vfscanf+0x2088>
   5d7f4:	lea    0x1(%rax),%rdx
   5d7f8:	mov    %rdx,0x8(%r13)
   5d7fc:	movzbl (%rax),%r10d
   5d800:	lea    0x2(%r8),%r14
   5d804:	test   %r12d,%r12d
   5d807:	je     5e5da <_IO_vfscanf+0x20ba>
   5d80d:	cmp    $0x30,%r10d
   5d811:	jne    5e5da <_IO_vfscanf+0x20ba>
   5d817:	xor    %eax,%eax
   5d819:	test   %r12d,%r12d
   5d81c:	mov    -0x448(%rbp),%rbx
   5d823:	setg   %al
   5d826:	sub    %eax,%r12d
   5d829:	mov    -0x450(%rbp),%rax
   5d830:	cmp    %rax,%rbx
   5d833:	je     5f76d <_IO_vfscanf+0x324d>
   5d839:	lea    0x1(%rax),%rdx
   5d83d:	mov    %rdx,-0x450(%rbp)
   5d844:	movb   $0x30,(%rax)
   5d847:	mov    0x8(%r13),%rax
   5d84b:	cmp    0x10(%r13),%rax
   5d84f:	jae    5ff4d <_IO_vfscanf+0x3a2d>
   5d855:	lea    0x1(%rax),%rdx
   5d859:	mov    %rdx,0x8(%r13)
   5d85d:	movzbl (%rax),%r10d
   5d861:	add    $0x1,%r14
   5d865:	test   %r12d,%r12d
   5d868:	je     5d883 <_IO_vfscanf+0x1363>
   5d86a:	mov    -0x5f8(%rbp),%rsi
   5d871:	movzbl %r10b,%eax
   5d875:	mov    0x70(%rsi),%rdx
   5d879:	cmpl   $0x78,(%rdx,%rax,4)
   5d87d:	je     5f920 <_IO_vfscanf+0x3400>
   5d883:	mov    -0x600(%rbp),%ecx
   5d889:	test   %ecx,%ecx
   5d88b:	je     5e734 <_IO_vfscanf+0x2214>
   5d891:	cmpl   $0xa,-0x600(%rbp)
   5d898:	jne    5d8b4 <_IO_vfscanf+0x1394>
   5d89a:	testl  $0x400,-0x5ec(%rbp)
   5d8a4:	jne    60080 <_IO_vfscanf+0x3b60>
   5d8aa:	movl   $0xa,-0x600(%rbp)
   5d8b4:	mov    -0x5ec(%rbp),%eax
   5d8ba:	mov    %r15,-0x6a0(%rbp)
   5d8c1:	mov    %r10d,%ebx
   5d8c4:	mov    %r12d,%r15d
   5d8c7:	and    $0x80,%eax
   5d8cc:	mov    %eax,-0x690(%rbp)
   5d8d2:	mov    -0x610(%rbp),%rax
   5d8d9:	add    $0x10,%rax
   5d8dd:	mov    %rax,-0x698(%rbp)
   5d8e4:	nopl   0x0(%rax)
   5d8e8:	cmp    $0xffffffff,%ebx
   5d8eb:	je     5d91a <_IO_vfscanf+0x13fa>
   5d8ed:	test   %r15d,%r15d
   5d8f0:	je     5d91a <_IO_vfscanf+0x13fa>
   5d8f2:	cmpl   $0x10,-0x600(%rbp)
   5d8f9:	je     5e1a0 <_IO_vfscanf+0x1c80>
   5d8ff:	lea    -0x30(%rbx),%eax
   5d902:	cmp    $0x9,%eax
   5d905:	ja     5e218 <_IO_vfscanf+0x1cf8>
   5d90b:	lea    -0x2f(%rbx),%eax
   5d90e:	cmp    -0x600(%rbp),%eax
   5d914:	jle    5e1b9 <_IO_vfscanf+0x1c99>
   5d91a:	mov    %r15d,%r12d
   5d91d:	mov    %ebx,%r10d
   5d920:	mov    -0x6a0(%rbp),%r15
   5d927:	mov    -0x450(%rbp),%rbx
   5d92e:	test   %rbx,%rbx
   5d931:	je     5f6c8 <_IO_vfscanf+0x31a8>
   5d937:	mov    -0x440(%rbp),%rax
   5d93e:	cmp    %rax,%rbx
   5d941:	je     5e7d6 <_IO_vfscanf+0x22b6>
   5d947:	mov    %rbx,%rdx
   5d94a:	sub    %rax,%rdx
   5d94d:	cmp    $0x1,%rdx
   5d951:	je     5f000 <_IO_vfscanf+0x2ae0>
   5d957:	cmp    $0xffffffff,%r10d
   5d95b:	je     5e9f0 <_IO_vfscanf+0x24d0>
   5d961:	movzbl %r10b,%esi
   5d965:	mov    %r13,%rdi
   5d968:	mov    %r10d,-0x628(%rbp)
   5d96f:	callq  7e5a0 <_IO_sputbackc>
   5d974:	mov    -0x628(%rbp),%r10d
   5d97b:	sub    $0x1,%r14
   5d97f:	mov    -0x450(%rbp),%rbx
   5d986:	cmp    -0x448(%rbp),%rbx
   5d98d:	je     5ff38 <_IO_vfscanf+0x3a18>
   5d993:	lea    0x1(%rbx),%rax
   5d997:	mov    %rax,-0x450(%rbp)
   5d99e:	movb   $0x0,(%rbx)
   5d9a1:	cmpq   $0x0,-0x450(%rbp)
   5d9a9:	je     5f96f <_IO_vfscanf+0x344f>
   5d9af:	mov    -0x5ec(%rbp),%ecx
   5d9b5:	mov    %r10d,-0x628(%rbp)
   5d9bc:	lea    -0x5c8(%rbp),%rsi
   5d9c3:	mov    -0x600(%rbp),%edx
   5d9c9:	mov    -0x440(%rbp),%rdi
   5d9d0:	mov    %ecx,%ebx
   5d9d2:	and    $0x80,%ecx
   5d9d8:	and    $0x40,%ebx
   5d9db:	je     5e723 <_IO_vfscanf+0x2203>
   5d9e1:	callq  3b7c0 <__strtol_internal>
   5d9e6:	mov    -0x628(%rbp),%r10d
   5d9ed:	mov    -0x440(%rbp),%rsi
   5d9f4:	cmp    %rsi,-0x5c8(%rbp)
   5d9fb:	je     5f992 <_IO_vfscanf+0x3472>
   5da01:	mov    -0x5ec(%rbp),%edi
   5da07:	mov    %edi,%esi
   5da09:	and    $0x8,%esi
   5da0c:	mov    %esi,-0x600(%rbp)
   5da12:	jne    5c77d <_IO_vfscanf+0x25d>
   5da18:	test   %ebx,%ebx
   5da1a:	je     5ef92 <_IO_vfscanf+0x2a72>
   5da20:	mov    %edi,%esi
   5da22:	and    $0x1,%esi
   5da25:	je     5f8b7 <_IO_vfscanf+0x3397>
   5da2b:	mov    -0x638(%rbp),%esi
   5da31:	test   %esi,%esi
   5da33:	jne    60cc5 <_IO_vfscanf+0x47a5>
   5da39:	mov    -0x5a8(%rbp),%ecx
   5da3f:	cmp    $0x2f,%ecx
   5da42:	ja     635bd <_IO_vfscanf+0x709d>
   5da48:	mov    %ecx,%edx
   5da4a:	add    -0x598(%rbp),%rdx
   5da51:	add    $0x8,%ecx
   5da54:	mov    %ecx,-0x5a8(%rbp)
   5da5a:	mov    (%rdx),%rdx
   5da5d:	mov    %rax,(%rdx)
   5da60:	addl   $0x1,-0x5e8(%rbp)
   5da67:	jmpq   5c832 <_IO_vfscanf+0x312>
   5da6c:	mov    %r8,%r14
   5da6f:	orl    $0x40,-0x5ec(%rbp)
   5da76:	mov    %r14,%r8
   5da79:	movl   $0x0,-0x600(%rbp)
   5da83:	jmpq   5d785 <_IO_vfscanf+0x1265>
   5da88:	mov    %r8,%r14
   5da8b:	orl    $0x40,-0x5ec(%rbp)
   5da92:	mov    %r14,%r8
   5da95:	movl   $0xa,-0x600(%rbp)
   5da9f:	jmpq   5d785 <_IO_vfscanf+0x1265>
   5daa4:	cmp    $0xffffffff,%r10d
   5daa8:	je     5fabe <_IO_vfscanf+0x359e>
   5daae:	mov    0x8(%r13),%rax
   5dab2:	cmp    0x10(%r13),%rax
   5dab6:	jae    61667 <_IO_vfscanf+0x5147>
   5dabc:	lea    0x1(%rax),%rdx
   5dac0:	add    $0x1,%r14
   5dac4:	test   %r12d,%r12d
   5dac7:	mov    %rdx,0x8(%r13)
   5dacb:	movzbl (%rax),%r10d
   5dacf:	jle    5dad5 <_IO_vfscanf+0x15b5>
   5dad1:	sub    $0x1,%r12d
   5dad5:	lea    -0x2b(%r10),%eax
   5dad9:	and    $0xfffffffd,%eax
   5dadc:	jne    5f1b4 <_IO_vfscanf+0x2c94>
   5dae2:	cmp    $0x2d,%r10d
   5dae6:	sete   -0x6a0(%rbp)
   5daed:	test   %r12d,%r12d
   5daf0:	je     61e2a <_IO_vfscanf+0x590a>
   5daf6:	mov    0x8(%r13),%rax
   5dafa:	cmp    0x10(%r13),%rax
   5dafe:	jae    61e08 <_IO_vfscanf+0x58e8>
   5db04:	lea    0x1(%rax),%rdx
   5db08:	mov    %rdx,0x8(%r13)
   5db0c:	movzbl (%rax),%r10d
   5db10:	xor    %eax,%eax
   5db12:	add    $0x1,%r14
   5db16:	test   %r12d,%r12d
   5db19:	setg   %al
   5db1c:	sub    %eax,%r12d
   5db1f:	mov    -0x5f8(%rbp),%rsi
   5db26:	movzbl %r10b,%eax
   5db2a:	mov    0x70(%rsi),%rdx
   5db2e:	mov    (%rdx,%rax,4),%eax
   5db31:	cmp    $0x6e,%eax
   5db34:	je     5f9a0 <_IO_vfscanf+0x3480>
   5db3a:	cmp    $0x69,%eax
   5db3d:	je     5fcf0 <_IO_vfscanf+0x37d0>
   5db43:	test   %r12d,%r12d
   5db46:	je     5fb34 <_IO_vfscanf+0x3614>
   5db4c:	cmp    $0x30,%r10d
   5db50:	jne    5fb34 <_IO_vfscanf+0x3614>
   5db56:	mov    -0x450(%rbp),%rax
   5db5d:	cmp    -0x448(%rbp),%rax
   5db64:	je     61922 <_IO_vfscanf+0x5402>
   5db6a:	lea    0x1(%rax),%rdx
   5db6e:	mov    %rdx,-0x450(%rbp)
   5db75:	movb   $0x30,(%rax)
   5db78:	mov    0x8(%r13),%rax
   5db7c:	cmp    0x10(%r13),%rax
   5db80:	jae    63285 <_IO_vfscanf+0x6d65>
   5db86:	lea    0x1(%rax),%rdx
   5db8a:	mov    %rdx,0x8(%r13)
   5db8e:	movzbl (%rax),%r10d
   5db92:	add    $0x1,%r14
   5db96:	xor    %eax,%eax
   5db98:	test   %r12d,%r12d
   5db9b:	setg   %al
   5db9e:	sub    %eax,%r12d
   5dba1:	je     5dbbc <_IO_vfscanf+0x169c>
   5dba3:	mov    -0x5f8(%rbp),%rsi
   5dbaa:	movzbl %r10b,%eax
   5dbae:	mov    0x70(%rsi),%rdx
   5dbb2:	cmpl   $0x78,(%rdx,%rax,4)
   5dbb6:	je     61990 <_IO_vfscanf+0x5470>
   5dbbc:	movl   $0x65,-0x6a4(%rbp)
   5dbc6:	movb   $0x65,-0x688(%rbp)
   5dbcd:	mov    $0x1,%edx
   5dbd2:	mov    -0x5ec(%rbp),%esi
   5dbd8:	mov    %r15,-0x698(%rbp)
   5dbdf:	mov    %r12d,%r15d
   5dbe2:	movb   $0x0,-0x690(%rbp)
   5dbe9:	movb   $0x0,-0x678(%rbp)
   5dbf0:	mov    %r10d,%r12d
   5dbf3:	mov    %dl,-0x628(%rbp)
   5dbf9:	mov    %esi,%eax
   5dbfb:	and    $0x800,%eax
   5dc00:	mov    %eax,-0x600(%rbp)
   5dc06:	mov    %esi,%eax
   5dc08:	and    $0x80,%eax
   5dc0d:	mov    %eax,-0x6b8(%rbp)
   5dc13:	mov    -0x610(%rbp),%rax
   5dc1a:	setne  -0x6c8(%rbp)
   5dc21:	add    $0x10,%rax
   5dc25:	mov    %rax,-0x6b0(%rbp)
   5dc2c:	jmp    5dc82 <_IO_vfscanf+0x1762>
   5dc2e:	cmp    -0x448(%rbp),%rbx
   5dc35:	je     60ed0 <_IO_vfscanf+0x49b0>
   5dc3b:	lea    0x1(%rbx),%rax
   5dc3f:	mov    %rax,-0x450(%rbp)
   5dc46:	mov    %r12b,(%rbx)
   5dc49:	test   %r15d,%r15d
   5dc4c:	je     61130 <_IO_vfscanf+0x4c10>
   5dc52:	movb   $0x1,-0x628(%rbp)
   5dc59:	mov    0x8(%r13),%rax
   5dc5d:	cmp    0x10(%r13),%rax
   5dc61:	jae    5f7c3 <_IO_vfscanf+0x32a3>
   5dc67:	lea    0x1(%rax),%rcx
   5dc6b:	mov    %rcx,0x8(%r13)
   5dc6f:	movzbl (%rax),%r12d
   5dc73:	xor    %eax,%eax
   5dc75:	add    $0x1,%r14
   5dc79:	test   %r15d,%r15d
   5dc7c:	setg   %al
   5dc7f:	sub    %eax,%r15d
   5dc82:	mov    -0x450(%rbp),%rbx
   5dc89:	test   %rbx,%rbx
   5dc8c:	je     5f7f9 <_IO_vfscanf+0x32d9>
   5dc92:	lea    -0x30(%r12),%eax
   5dc97:	cmp    $0x9,%eax
   5dc9a:	jbe    5dc2e <_IO_vfscanf+0x170e>
   5dc9c:	cmpb   $0x0,-0x690(%rbp)
   5dca3:	je     5ea64 <_IO_vfscanf+0x2544>
   5dca9:	movzbl -0x688(%rbp),%eax
   5dcb0:	cmp    -0x1(%rbx),%al
   5dcb3:	je     60974 <_IO_vfscanf+0x4454>
   5dcb9:	test   %r15d,%r15d
   5dcbc:	mov    $0x7fffffff,%ecx
   5dcc1:	mov    -0x670(%rbp),%rax
   5dcc8:	cmovg  %r15d,%ecx
   5dccc:	cmpb   $0x0,-0x678(%rbp)
   5dcd3:	jne    5f1c0 <_IO_vfscanf+0x2ca0>
   5dcd9:	movzbl (%rax),%edi
   5dcdc:	cmp    %edi,%r12d
   5dcdf:	mov    %edi,%eax
   5dce1:	mov    %edi,%esi
   5dce3:	jne    637e7 <_IO_vfscanf+0x72c7>
   5dce9:	mov    -0x670(%rbp),%rax
   5dcf0:	cmpb   $0x0,0x1(%rax)
   5dcf4:	lea    0x1(%rax),%rbx
   5dcf8:	jne    5dd33 <_IO_vfscanf+0x1813>
   5dcfa:	jmpq   5dd82 <_IO_vfscanf+0x1862>
   5dcff:	nop
   5dd00:	lea    0x1(%rax),%rdx
   5dd04:	mov    %rdx,0x8(%r13)
   5dd08:	movzbl (%rax),%esi
   5dd0b:	movzbl (%rbx),%r12d
   5dd0f:	add    $0x1,%r14
   5dd13:	sub    $0x1,%ecx
   5dd16:	cmp    %esi,%r12d
   5dd19:	mov    %r12d,%eax
   5dd1c:	jne    610d5 <_IO_vfscanf+0x4bb5>
   5dd22:	add    $0x1,%rbx
   5dd26:	cmpb   $0x0,(%rbx)
   5dd29:	je     5dd78 <_IO_vfscanf+0x1858>
   5dd2b:	test   %ecx,%ecx
   5dd2d:	je     5fb4c <_IO_vfscanf+0x362c>
   5dd33:	mov    0x8(%r13),%rax
   5dd37:	cmp    0x10(%r13),%rax
   5dd3b:	jb     5dd00 <_IO_vfscanf+0x17e0>
   5dd3d:	mov    %r13,%rdi
   5dd40:	mov    %ecx,-0x6c0(%rbp)
   5dd46:	callq  7d720 <__uflow>
   5dd4b:	cmp    $0xffffffff,%eax
   5dd4e:	mov    %eax,%r12d
   5dd51:	mov    -0x6c0(%rbp),%ecx
   5dd57:	jne    63dc1 <_IO_vfscanf+0x78a1>
   5dd5d:	mov    0x362104(%rip),%rax        # 3bfe68 <_DYNAMIC+0x308>
   5dd64:	mov    %fs:(%rax),%eax
   5dd67:	mov    %eax,-0x5e4(%rbp)
   5dd6d:	movzbl (%rbx),%eax
   5dd70:	test   %al,%al
   5dd72:	jne    5fb4c <_IO_vfscanf+0x362c>
   5dd78:	mov    -0x670(%rbp),%rax
   5dd7f:	movzbl (%rax),%esi
   5dd82:	test   %sil,%sil
   5dd85:	mov    %rax,%r11
   5dd88:	mov    %ecx,%ebx
   5dd8a:	jne    5ddb7 <_IO_vfscanf+0x1897>
   5dd8c:	jmpq   5f340 <_IO_vfscanf+0x2e20>
   5dd91:	nopl   0x0(%rax)
   5dd98:	lea    0x1(%rax),%rdx
   5dd9c:	mov    %rdx,-0x450(%rbp)
   5dda3:	mov    %sil,(%rax)
   5dda6:	add    $0x1,%r11
   5ddaa:	movzbl (%r11),%esi
   5ddae:	test   %sil,%sil
   5ddb1:	je     5f33e <_IO_vfscanf+0x2e1e>
   5ddb7:	mov    -0x450(%rbp),%rax
   5ddbe:	cmp    -0x448(%rbp),%rax
   5ddc5:	jne    5dd98 <_IO_vfscanf+0x1878>
   5ddc7:	test   %rax,%rax
   5ddca:	mov    %sil,-0x6d0(%rbp)
   5ddd1:	je     5dda6 <_IO_vfscanf+0x1886>
   5ddd3:	sub    -0x440(%rbp),%rax
   5ddda:	mov    -0x6b0(%rbp),%rdi
   5dde1:	mov    %r11,-0x6c0(%rbp)
   5dde8:	mov    %rax,-0x678(%rbp)
   5ddef:	callq  8afb0 <__libc_scratch_buffer_grow_preserve>
   5ddf4:	test   %al,%al
   5ddf6:	mov    -0x6c0(%rbp),%r11
   5ddfd:	movzbl -0x6d0(%rbp),%esi
   5de04:	je     617da <_IO_vfscanf+0x52ba>
   5de0a:	mov    -0x440(%rbp),%rax
   5de11:	mov    %rax,%rdx
   5de14:	add    -0x678(%rbp),%rax
   5de1b:	add    -0x438(%rbp),%rdx
   5de22:	mov    %rdx,-0x448(%rbp)
   5de29:	lea    0x1(%rax),%rdx
   5de2d:	mov    %rdx,-0x450(%rbp)
   5de34:	mov    %sil,(%rax)
   5de37:	jmpq   5dda6 <_IO_vfscanf+0x1886>
   5de3c:	lea    0x2(%r15),%rdx
   5de40:	orl    $0x3,-0x5ec(%rbp)
   5de47:	movzbl 0x2(%r15),%ebx
   5de4c:	jmpq   5cc0c <_IO_vfscanf+0x6ec>
   5de51:	lea    0x2(%r15),%rdx
   5de55:	orl    $0x2001,-0x5ec(%rbp)
   5de5f:	movzbl 0x2(%r15),%ebx
   5de64:	jmpq   5cc0c <_IO_vfscanf+0x6ec>
   5de69:	lea    0x2(%r15),%rdx
   5de6d:	orl    $0x200,-0x5ec(%rbp)
   5de77:	movzbl 0x2(%r15),%ebx
   5de7c:	jmpq   5cc0c <_IO_vfscanf+0x6ec>
   5de81:	mov    %r13,%r15
   5de84:	mov    $0x2,%r13d
   5de8a:	jmpq   5c9b8 <_IO_vfscanf+0x498>
   5de8f:	testb  $0x10,0x74(%r13)
   5de94:	jne    5cda0 <_IO_vfscanf+0x880>
   5de9a:	orl    $0x100,-0x5ec(%rbp)
   5dea4:	mov    %eax,%ebx
   5dea6:	jmpq   5cc0c <_IO_vfscanf+0x6ec>
   5deab:	mov    %r14,%r8
   5deae:	mov    -0x5ec(%rbp),%eax
   5deb4:	movl   $0x10,-0x600(%rbp)
   5debe:	and    $0xfffffff9,%eax
   5dec1:	or     $0x1001,%eax
   5dec6:	mov    %eax,-0x5ec(%rbp)
   5decc:	jmpq   5d785 <_IO_vfscanf+0x1265>
   5ded1:	mov    %r8,%r14
   5ded4:	mov    -0x5ec(%rbp),%ebx
   5deda:	mov    %ebx,%eax
   5dedc:	and    $0x1,%eax
   5dedf:	mov    %eax,-0x600(%rbp)
   5dee5:	jne    5cfba <_IO_vfscanf+0xa9a>
   5deeb:	mov    %ebx,%eax
   5deed:	and    $0x8,%ebx
   5def0:	jne    5dfb6 <_IO_vfscanf+0x1a96>
   5def6:	test   $0x21,%ah
   5def9:	je     60a89 <_IO_vfscanf+0x4569>
   5deff:	mov    -0x638(%rbp),%ecx
   5df05:	test   %ecx,%ecx
   5df07:	jne    61250 <_IO_vfscanf+0x4d30>
   5df0d:	mov    -0x5a8(%rbp),%edx
   5df13:	cmp    $0x2f,%edx
   5df16:	ja     63e9b <_IO_vfscanf+0x797b>
   5df1c:	mov    %edx,%eax
   5df1e:	add    -0x598(%rbp),%rax
   5df25:	add    $0x8,%edx
   5df28:	mov    %edx,-0x5a8(%rbp)
   5df2e:	mov    (%rax),%rax
   5df31:	mov    %rax,-0x608(%rbp)
   5df38:	cmpq   $0x0,-0x608(%rbp)
   5df40:	mov    %r10d,-0x638(%rbp)
   5df47:	je     63e8d <_IO_vfscanf+0x796d>
   5df4d:	mov    $0x64,%edi
   5df52:	callq  1f998 <*ABS*+0x911b0@plt+0x18>
   5df57:	mov    -0x608(%rbp),%rdi
   5df5e:	test   %rax,%rax
   5df61:	mov    %rax,(%rdi)
   5df64:	je     6184d <_IO_vfscanf+0x532d>
   5df6a:	mov    -0x660(%rbp),%rdi
   5df71:	mov    -0x638(%rbp),%r10d
   5df78:	test   %rdi,%rdi
   5df7b:	je     61818 <_IO_vfscanf+0x52f8>
   5df81:	mov    (%rdi),%rdx
   5df84:	cmp    $0x20,%rdx
   5df88:	je     61818 <_IO_vfscanf+0x52f8>
   5df8e:	lea    0x1(%rdx),%rcx
   5df92:	mov    %rdi,%rsi
   5df95:	mov    -0x608(%rbp),%rdi
   5df9c:	mov    %rcx,(%rsi)
   5df9f:	mov    %rax,-0x668(%rbp)
   5dfa6:	movq   $0x64,-0x658(%rbp)
   5dfb1:	mov    %rdi,0x10(%rsi,%rdx,8)
   5dfb6:	cmp    $0xffffffff,%r10d
   5dfba:	je     60906 <_IO_vfscanf+0x43e6>
   5dfc0:	mov    0x8(%r13),%rax
   5dfc4:	cmp    0x10(%r13),%rax
   5dfc8:	jae    61ab0 <_IO_vfscanf+0x5590>
   5dfce:	lea    0x1(%rax),%rdx
   5dfd2:	mov    %rdx,0x8(%r13)
   5dfd6:	movzbl (%rax),%r10d
   5dfda:	mov    -0x5f8(%rbp),%rdi
   5dfe1:	movslq %r10d,%rax
   5dfe4:	add    $0x1,%r14
   5dfe8:	mov    0x68(%rdi),%rdx
   5dfec:	testb  $0x20,0x1(%rdx,%rax,2)
   5dff1:	jne    60afe <_IO_vfscanf+0x45de>
   5dff7:	mov    -0x5ec(%rbp),%ecx
   5dffd:	mov    %r15,-0x638(%rbp)
   5e004:	mov    %ebx,%r8d
   5e007:	mov    %r14,%rdx
   5e00a:	mov    -0x668(%rbp),%rsi
   5e011:	mov    -0x658(%rbp),%r15
   5e018:	mov    -0x5f8(%rbp),%r14
   5e01f:	mov    %r10d,%ebx
   5e022:	and    $0x2100,%ecx
   5e028:	jmp    5e089 <_IO_vfscanf+0x1b69>
   5e02a:	mov    -0x608(%rbp),%rdi
   5e031:	mov    %r15,-0x658(%rbp)
   5e038:	mov    %rax,%rsi
   5e03b:	mov    (%rdi),%rdi
   5e03e:	lea    (%rdi,%r15,1),%r11
   5e042:	cmp    %r11,%rax
   5e045:	je     60fbd <_IO_vfscanf+0x4a9d>
   5e04b:	test   %r12d,%r12d
   5e04e:	jle    5e05a <_IO_vfscanf+0x1b3a>
   5e050:	sub    $0x1,%r12d
   5e054:	je     61441 <_IO_vfscanf+0x4f21>
   5e05a:	mov    0x8(%r13),%rax
   5e05e:	cmp    0x10(%r13),%rax
   5e062:	jae    5ec1d <_IO_vfscanf+0x26fd>
   5e068:	lea    0x1(%rax),%rdi
   5e06c:	mov    %rdi,0x8(%r13)
   5e070:	movzbl (%rax),%ebx
   5e073:	mov    0x68(%r14),%rdi
   5e077:	movslq %ebx,%rax
   5e07a:	add    $0x1,%rdx
   5e07e:	testb  $0x20,0x1(%rdi,%rax,2)
   5e083:	jne    60ae0 <_IO_vfscanf+0x45c0>
   5e089:	test   %r8d,%r8d
   5e08c:	jne    5e04b <_IO_vfscanf+0x1b2b>
   5e08e:	test   %ecx,%ecx
   5e090:	lea    0x1(%rsi),%rax
   5e094:	mov    %bl,(%rsi)
   5e096:	jne    5e02a <_IO_vfscanf+0x1b0a>
   5e098:	mov    %rax,%rsi
   5e09b:	jmp    5e04b <_IO_vfscanf+0x1b2b>
   5e09d:	mov    0x8(%r13),%rax
   5e0a1:	cmp    0x10(%r13),%rax
   5e0a5:	jae    61540 <_IO_vfscanf+0x5020>
   5e0ab:	lea    0x1(%rax),%rdx
   5e0af:	mov    %rdx,0x8(%r13)
   5e0b3:	movzbl (%rax),%r10d
   5e0b7:	cmp    $0x25,%r10d
   5e0bb:	je     5c77d <_IO_vfscanf+0x25d>
   5e0c1:	mov    %r13,%rdi
   5e0c4:	movzbl %r10b,%esi
   5e0c8:	mov    %r13,%r15
   5e0cb:	callq  7e5a0 <_IO_sputbackc>
   5e0d0:	mov    $0x2,%r13d
   5e0d6:	jmpq   5c9b8 <_IO_vfscanf+0x498>
   5e0db:	mov    -0x628(%rbp),%rdx
   5e0e2:	mov    -0x5e4(%rbp),%eax
   5e0e8:	mov    %r13,%r15
   5e0eb:	mov    %eax,%fs:(%rdx)
   5e0ee:	mov    -0x5e8(%rbp),%r12d
   5e0f5:	mov    $0x1,%r13d
   5e0fb:	test   %r12d,%r12d
   5e0fe:	jne    5c9b8 <_IO_vfscanf+0x498>
   5e104:	movl   $0xffffffff,-0x5e8(%rbp)
   5e10e:	jmpq   5c9b8 <_IO_vfscanf+0x498>
   5e113:	mov    %r8,%r14
   5e116:	jmpq   5daae <_IO_vfscanf+0x158e>
   5e11b:	movl   $0x10,-0x600(%rbp)
   5e125:	jmpq   5d78f <_IO_vfscanf+0x126f>
   5e12a:	mov    -0x628(%rbp),%rdx
   5e131:	mov    %r13,%r15
   5e134:	mov    -0x5e4(%rbp),%eax
   5e13a:	mov    %eax,%fs:(%rdx)
   5e13d:	mov    -0x5e8(%rbp),%edx
   5e143:	mov    $0x1,%r13d
   5e149:	test   %edx,%edx
   5e14b:	jne    5c9b8 <_IO_vfscanf+0x498>
   5e151:	movl   $0xffffffff,-0x5e8(%rbp)
   5e15b:	jmpq   5c9b8 <_IO_vfscanf+0x498>
   5e160:	movl   $0x8,-0x600(%rbp)
   5e16a:	jmpq   5d78f <_IO_vfscanf+0x126f>
   5e16f:	movl   $0xa,-0x600(%rbp)
   5e179:	jmpq   5d78f <_IO_vfscanf+0x126f>
   5e17e:	mov    %r13,%r15
   5e181:	mov    $0x2,%r13d
   5e187:	jmpq   5c9b8 <_IO_vfscanf+0x498>
   5e18c:	mov    %r13,%r15
   5e18f:	mov    $0x2,%r13d
   5e195:	jmpq   5c9b8 <_IO_vfscanf+0x498>
   5e19a:	nopw   0x0(%rax,%rax,1)
   5e1a0:	mov    -0x5f8(%rbp),%rsi
   5e1a7:	movslq %ebx,%rax
   5e1aa:	mov    0x68(%rsi),%rcx
   5e1ae:	testb  $0x10,0x1(%rcx,%rax,2)
   5e1b3:	je     5d91a <_IO_vfscanf+0x13fa>
   5e1b9:	mov    -0x450(%rbp),%rax
   5e1c0:	mov    %ebx,%ecx
   5e1c2:	cmp    %rax,-0x448(%rbp)
   5e1c9:	je     5e3c8 <_IO_vfscanf+0x1ea8>
   5e1cf:	lea    0x1(%rax),%rsi
   5e1d3:	mov    %rsi,-0x450(%rbp)
   5e1da:	mov    %cl,(%rax)
   5e1dc:	xor    %eax,%eax
   5e1de:	test   %r15d,%r15d
   5e1e1:	setg   %al
   5e1e4:	sub    %eax,%r15d
   5e1e7:	cmp    $0xffffffff,%ebx
   5e1ea:	je     5e3b0 <_IO_vfscanf+0x1e90>
   5e1f0:	mov    0x8(%r13),%rax
   5e1f4:	cmp    0x10(%r13),%rax
   5e1f8:	jae    5e580 <_IO_vfscanf+0x2060>
   5e1fe:	lea    0x1(%rax),%rcx
   5e202:	mov    %rcx,0x8(%r13)
   5e206:	movzbl (%rax),%ebx
   5e209:	add    $0x1,%r14
   5e20d:	jmpq   5d8e8 <_IO_vfscanf+0x13c8>
   5e212:	nopw   0x0(%rax,%rax,1)
   5e218:	cmpl   $0xa,-0x600(%rbp)
   5e21f:	jne    5d91a <_IO_vfscanf+0x13fa>
   5e225:	mov    -0x690(%rbp),%edi
   5e22b:	test   %edi,%edi
   5e22d:	je     5d91a <_IO_vfscanf+0x13fa>
   5e233:	mov    -0x620(%rbp),%r12
   5e23a:	test   %r15d,%r15d
   5e23d:	mov    $0x7fffffff,%esi
   5e242:	cmovg  %r15d,%esi
   5e246:	movzbl (%r12),%eax
   5e24b:	cmp    %eax,%ebx
   5e24d:	jne    5e376 <_IO_vfscanf+0x1e56>
   5e253:	mov    %r15d,-0x628(%rbp)
   5e25a:	mov    %r13,%r15
   5e25d:	mov    %r12,%r13
   5e260:	mov    %r14,%r12
   5e263:	mov    %esi,%r14d
   5e266:	jmp    5e2c3 <_IO_vfscanf+0x1da3>
   5e268:	nopl   0x0(%rax,%rax,1)
   5e270:	lea    0x1(%rax),%rdi
   5e274:	mov    %rdi,-0x450(%rbp)
   5e27b:	mov    %bl,(%rax)
   5e27d:	add    $0x1,%r13
   5e281:	cmpb   $0x0,0x0(%r13)
   5e286:	je     5e430 <_IO_vfscanf+0x1f10>
   5e28c:	test   %r14d,%r14d
   5e28f:	je     5e478 <_IO_vfscanf+0x1f58>
   5e295:	mov    0x8(%r15),%rax
   5e299:	cmp    0x10(%r15),%rax
   5e29d:	jae    5e340 <_IO_vfscanf+0x1e20>
   5e2a3:	lea    0x1(%rax),%rcx
   5e2a7:	mov    %rcx,0x8(%r15)
   5e2ab:	movzbl (%rax),%ebx
   5e2ae:	movzbl 0x0(%r13),%eax
   5e2b3:	add    $0x1,%r12
   5e2b7:	sub    $0x1,%r14d
   5e2bb:	cmp    %ebx,%eax
   5e2bd:	jne    5e560 <_IO_vfscanf+0x2040>
   5e2c3:	mov    -0x450(%rbp),%rax
   5e2ca:	cmp    -0x448(%rbp),%rax
   5e2d1:	mov    %ebx,%ecx
   5e2d3:	jne    5e270 <_IO_vfscanf+0x1d50>
   5e2d5:	test   %rax,%rax
   5e2d8:	mov    %bl,-0x678(%rbp)
   5e2de:	je     5e68e <_IO_vfscanf+0x216e>
   5e2e4:	sub    -0x440(%rbp),%rax
   5e2eb:	mov    -0x698(%rbp),%rdi
   5e2f2:	mov    %rax,-0x688(%rbp)
   5e2f9:	callq  8afb0 <__libc_scratch_buffer_grow_preserve>
   5e2fe:	test   %al,%al
   5e300:	movzbl -0x678(%rbp),%ecx
   5e307:	je     5e6c1 <_IO_vfscanf+0x21a1>
   5e30d:	mov    -0x440(%rbp),%rax
   5e314:	mov    %rax,%rdi
   5e317:	add    -0x688(%rbp),%rax
   5e31e:	add    -0x438(%rbp),%rdi
   5e325:	mov    %rdi,-0x448(%rbp)
   5e32c:	lea    0x1(%rax),%rdi
   5e330:	mov    %rdi,-0x450(%rbp)
   5e337:	mov    %bl,(%rax)
   5e339:	jmpq   5e27d <_IO_vfscanf+0x1d5d>
   5e33e:	xchg   %ax,%ax
   5e340:	mov    %r15,%rdi
   5e343:	callq  7d720 <__uflow>
   5e348:	cmp    $0xffffffff,%eax
   5e34b:	mov    %eax,%ebx
   5e34d:	jne    5e2ae <_IO_vfscanf+0x1d8e>
   5e353:	mov    0x361b0e(%rip),%rax        # 3bfe68 <_DYNAMIC+0x308>
   5e35a:	mov    %r14d,%esi
   5e35d:	mov    %r12,%r14
   5e360:	mov    %r13,%r12
   5e363:	mov    %r15,%r13
   5e366:	mov    -0x628(%rbp),%r15d
   5e36d:	mov    %fs:(%rax),%eax
   5e370:	mov    %eax,-0x5e4(%rbp)
   5e376:	mov    -0x450(%rbp),%rax
   5e37d:	test   %rax,%rax
   5e380:	je     5e450 <_IO_vfscanf+0x1f30>
   5e386:	cmpb   $0x0,(%r12)
   5e38b:	jne    6309f <_IO_vfscanf+0x6b7f>
   5e391:	mov    %ebx,%ecx
   5e393:	test   %r15d,%r15d
   5e396:	cmovle %r15d,%esi
   5e39a:	sub    $0x1,%rax
   5e39e:	mov    %rax,-0x450(%rbp)
   5e3a5:	mov    %esi,%r15d
   5e3a8:	jmpq   5e1c2 <_IO_vfscanf+0x1ca2>
   5e3ad:	nopl   (%rax)
   5e3b0:	mov    0x361ab1(%rip),%rax        # 3bfe68 <_DYNAMIC+0x308>
   5e3b7:	mov    -0x5e4(%rbp),%edi
   5e3bd:	mov    %edi,%fs:(%rax)
   5e3c0:	jmpq   5d8e8 <_IO_vfscanf+0x13c8>
   5e3c5:	nopl   (%rax)
   5e3c8:	test   %rax,%rax
   5e3cb:	mov    %cl,-0x628(%rbp)
   5e3d1:	je     5e1dc <_IO_vfscanf+0x1cbc>
   5e3d7:	sub    -0x440(%rbp),%rax
   5e3de:	mov    -0x698(%rbp),%rdi
   5e3e5:	mov    %rax,%r12
   5e3e8:	callq  8afb0 <__libc_scratch_buffer_grow_preserve>
   5e3ed:	test   %al,%al
   5e3ef:	movzbl -0x628(%rbp),%ecx
   5e3f6:	je     5f46d <_IO_vfscanf+0x2f4d>
   5e3fc:	mov    -0x440(%rbp),%rax
   5e403:	mov    %rax,%rsi
   5e406:	add    -0x438(%rbp),%rsi
   5e40d:	add    %r12,%rax
   5e410:	mov    %rsi,-0x448(%rbp)
   5e417:	lea    0x1(%rax),%rsi
   5e41b:	mov    %rsi,-0x450(%rbp)
   5e422:	mov    %cl,(%rax)
   5e424:	jmpq   5e1dc <_IO_vfscanf+0x1cbc>
   5e429:	nopl   0x0(%rax)
   5e430:	mov    -0x450(%rbp),%rax
   5e437:	mov    %r14d,%esi
   5e43a:	mov    %r15,%r13
   5e43d:	mov    %r12,%r14
   5e440:	mov    -0x628(%rbp),%r15d
   5e447:	test   %rax,%rax
   5e44a:	jne    5e393 <_IO_vfscanf+0x1e73>
   5e450:	mov    %r13,%r15
   5e453:	mov    0x361a0e(%rip),%rax        # 3bfe68 <_DYNAMIC+0x308>
   5e45a:	xor    %r13d,%r13d
   5e45d:	movl   $0xffffffff,-0x5e8(%rbp)
   5e467:	movl   $0xc,%fs:(%rax)
   5e46e:	jmpq   5c9b8 <_IO_vfscanf+0x498>
   5e473:	nopl   0x0(%rax,%rax,1)
   5e478:	mov    %ebx,%r10d
   5e47b:	mov    -0x450(%rbp),%rbx
   5e482:	mov    %r13,%rdx
   5e485:	mov    %r12,%r14
   5e488:	mov    %r15,%r13
   5e48b:	mov    -0x628(%rbp),%r12d
   5e492:	mov    -0x6a0(%rbp),%r15
   5e499:	test   %rbx,%rbx
   5e49c:	je     5e450 <_IO_vfscanf+0x1f30>
   5e49e:	mov    -0x620(%rbp),%rax
   5e4a5:	cmp    %rax,%rdx
   5e4a8:	jbe    5d937 <_IO_vfscanf+0x1417>
   5e4ae:	mov    %rdx,%rsi
   5e4b1:	sub    %rax,%rsi
   5e4b4:	sub    %rsi,%rbx
   5e4b7:	cmp    $0xffffffff,%r10d
   5e4bb:	mov    %rbx,-0x450(%rbp)
   5e4c2:	je     5e4e2 <_IO_vfscanf+0x1fc2>
   5e4c4:	movzbl %r10b,%esi
   5e4c8:	mov    %r13,%rdi
   5e4cb:	mov    %rdx,-0x628(%rbp)
   5e4d2:	callq  7e5a0 <_IO_sputbackc>
   5e4d7:	mov    -0x628(%rbp),%rdx
   5e4de:	sub    $0x1,%r14
   5e4e2:	mov    -0x620(%rbp),%rdi
   5e4e9:	lea    -0x1(%rdx),%rax
   5e4ed:	mov    %rax,-0x628(%rbp)
   5e4f4:	cmp    %rax,%rdi
   5e4f7:	jae    5e550 <_IO_vfscanf+0x2030>
   5e4f9:	mov    %r12d,-0x678(%rbp)
   5e500:	mov    %rdx,-0x688(%rbp)
   5e507:	mov    %rax,%r12
   5e50a:	mov    %rdi,%rbx
   5e50d:	movzbl (%r12),%esi
   5e512:	mov    %r13,%rdi
   5e515:	sub    $0x1,%r12
   5e519:	callq  7e5a0 <_IO_sputbackc>
   5e51e:	cmp    %r12,%rbx
   5e521:	jne    5e50d <_IO_vfscanf+0x1fed>
   5e523:	mov    -0x688(%rbp),%rdx
   5e52a:	mov    -0x620(%rbp),%rax
   5e531:	mov    -0x678(%rbp),%r12d
   5e538:	sub    %rdx,%rax
   5e53b:	add    $0x1,%rax
   5e53f:	add    %rax,-0x628(%rbp)
   5e546:	add    %rax,%r14
   5e549:	mov    -0x628(%rbp),%rax
   5e550:	movzbl (%rax),%r10d
   5e554:	mov    -0x450(%rbp),%rbx
   5e55b:	jmpq   5d92e <_IO_vfscanf+0x140e>
   5e560:	mov    %r14d,%esi
   5e563:	mov    %r12,%r14
   5e566:	mov    %r13,%r12
   5e569:	mov    %r15,%r13
   5e56c:	mov    -0x628(%rbp),%r15d
   5e573:	jmpq   5e376 <_IO_vfscanf+0x1e56>
   5e578:	nopl   0x0(%rax,%rax,1)
   5e580:	mov    %r13,%rdi
   5e583:	callq  7d720 <__uflow>
   5e588:	cmp    $0xffffffff,%eax
   5e58b:	mov    %eax,%ebx
   5e58d:	jne    5e209 <_IO_vfscanf+0x1ce9>
   5e593:	mov    0x3618ce(%rip),%rax        # 3bfe68 <_DYNAMIC+0x308>
   5e59a:	mov    %fs:(%rax),%eax
   5e59d:	mov    %eax,-0x5e4(%rbp)
   5e5a3:	jmpq   5d8e8 <_IO_vfscanf+0x13c8>
   5e5a8:	mov    %r13,%rdi
   5e5ab:	mov    %r8,-0x628(%rbp)
   5e5b2:	callq  7d720 <__uflow>
   5e5b7:	cmp    $0xffffffff,%eax
   5e5ba:	mov    %eax,%r10d
   5e5bd:	mov    -0x628(%rbp),%r8
   5e5c4:	jne    5d800 <_IO_vfscanf+0x12e0>
   5e5ca:	mov    0x361897(%rip),%rax        # 3bfe68 <_DYNAMIC+0x308>
   5e5d1:	mov    %fs:(%rax),%eax
   5e5d4:	mov    %eax,-0x5e4(%rbp)
   5e5da:	mov    -0x600(%rbp),%r11d
   5e5e1:	test   %r11d,%r11d
   5e5e4:	je     5d89a <_IO_vfscanf+0x137a>
   5e5ea:	jmpq   5d891 <_IO_vfscanf+0x1371>
   5e5ef:	mov    %r13,%r15
   5e5f2:	mov    $0x2,%r13d
   5e5f8:	jmpq   5c9b8 <_IO_vfscanf+0x498>
   5e5fd:	mov    %r13,%rdi
   5e600:	callq  7d720 <__uflow>
   5e605:	cmp    $0xffffffff,%eax
   5e608:	jne    5c71e <_IO_vfscanf+0x1fe>
   5e60e:	mov    %r13,%r15
   5e611:	jmpq   5cbc3 <_IO_vfscanf+0x6a3>
   5e616:	mov    %r13,%r15
   5e619:	mov    -0x600(%rbp),%r13d
   5e620:	test   %r13d,%r13d
   5e623:	je     5c9b8 <_IO_vfscanf+0x498>
   5e629:	mov    $0xfffffffffffffffe,%rbx
   5e630:	mov    -0x5e4(%rbp),%r13d
   5e637:	mov    -0x5f8(%rbp),%r12
   5e63e:	mov    %r10d,%eax
   5e641:	jmp    5e679 <_IO_vfscanf+0x2159>
   5e643:	nopl   0x0(%rax,%rax,1)
   5e648:	mov    0x8(%r15),%rax
   5e64c:	cmp    0x10(%r15),%rax
   5e650:	jae    5e752 <_IO_vfscanf+0x2232>
   5e656:	lea    0x1(%rax),%rdx
   5e65a:	mov    %rdx,0x8(%r15)
   5e65e:	movzbl (%rax),%eax
   5e661:	mov    %rax,%rdx
   5e664:	add    %rdx,%rdx
   5e667:	mov    0x68(%r12),%rcx
   5e66c:	movzwl (%rcx,%rdx,1),%edx
   5e670:	and    $0x20,%dh
   5e673:	je     5e707 <_IO_vfscanf+0x21e7>
   5e679:	cmp    $0xffffffff,%eax
   5e67c:	jne    5e648 <_IO_vfscanf+0x2128>
   5e67e:	mov    0x3617e3(%rip),%rdx        # 3bfe68 <_DYNAMIC+0x308>
   5e685:	mov    %r13d,%fs:(%rdx)
   5e689:	mov    %rbx,%rdx
   5e68c:	jmp    5e667 <_IO_vfscanf+0x2147>
   5e68e:	add    $0x1,%r13
   5e692:	cmpb   $0x0,0x0(%r13)
   5e697:	jne    5e28c <_IO_vfscanf+0x1d6c>
   5e69d:	jmpq   5e453 <_IO_vfscanf+0x1f33>
   5e6a2:	nopw   0x0(%rax,%rax,1)
   5e6a8:	mov    %r13,%rdi
   5e6ab:	movzbl %al,%esi
   5e6ae:	mov    %r13,%r15
   5e6b1:	callq  7e5a0 <_IO_sputbackc>
   5e6b6:	mov    $0x2,%r13d
   5e6bc:	jmpq   5c9b8 <_IO_vfscanf+0x498>
   5e6c1:	pxor   %xmm0,%xmm0
   5e6c5:	movaps %xmm0,-0x450(%rbp)
   5e6cc:	jmpq   5e27d <_IO_vfscanf+0x1d5d>
   5e6d1:	mov    0x361790(%rip),%rax        # 3bfe68 <_DYNAMIC+0x308>
   5e6d8:	movl   $0xffffffff,-0x5e8(%rbp)
   5e6e2:	movl   $0x9,%fs:(%rax)
   5e6e9:	jmpq   5ca50 <_IO_vfscanf+0x530>
   5e6ee:	mov    %r13,%rdi
   5e6f1:	movzbl %al,%esi
   5e6f4:	mov    %r13,%r15
   5e6f7:	callq  7e5a0 <_IO_sputbackc>
   5e6fc:	mov    $0x2,%r13d
   5e702:	jmpq   5c9b8 <_IO_vfscanf+0x498>
   5e707:	xor    %r13d,%r13d
   5e70a:	cmp    $0xffffffff,%eax
   5e70d:	je     5c9b8 <_IO_vfscanf+0x498>
   5e713:	movzbl %al,%esi
   5e716:	mov    %r15,%rdi
   5e719:	callq  7e5a0 <_IO_sputbackc>
   5e71e:	jmpq   5c9b8 <_IO_vfscanf+0x498>
   5e723:	callq  3b7f0 <__strtoul_internal>
   5e728:	mov    -0x628(%rbp),%r10d
   5e72f:	jmpq   5d9ed <_IO_vfscanf+0x14cd>
   5e734:	movl   $0x8,-0x600(%rbp)
   5e73e:	jmpq   5d8b4 <_IO_vfscanf+0x1394>
   5e743:	mov    %r13,%r15
   5e746:	mov    0x36171b(%rip),%rdx        # 3bfe68 <_DYNAMIC+0x308>
   5e74d:	jmpq   5cf89 <_IO_vfscanf+0xa69>
   5e752:	mov    %r15,%rdi
   5e755:	callq  7d720 <__uflow>
   5e75a:	cmp    $0xffffffff,%eax
   5e75d:	jne    6385a <_IO_vfscanf+0x733a>
   5e763:	mov    0x3616fe(%rip),%rdx        # 3bfe68 <_DYNAMIC+0x308>
   5e76a:	mov    %fs:(%rdx),%r13d
   5e76e:	mov    %rbx,%rdx
   5e771:	jmpq   5e667 <_IO_vfscanf+0x2147>
   5e776:	mov    %rbx,%rdi
   5e779:	callq  7d720 <__uflow>
   5e77e:	cmp    $0xffffffff,%eax
   5e781:	mov    %eax,%r13d
   5e784:	jne    5d393 <_IO_vfscanf+0xe73>
   5e78a:	mov    0x3616d7(%rip),%rax        # 3bfe68 <_DYNAMIC+0x308>
   5e791:	mov    %rbx,%r15
   5e794:	mov    $0x4,%r13d
   5e79a:	movl   $0x54,%fs:(%rax)
   5e7a1:	jmpq   5c9b8 <_IO_vfscanf+0x498>
   5e7a6:	mov    %r12,%rdi
   5e7a9:	callq  7d720 <__uflow>
   5e7ae:	cmp    $0xffffffff,%eax
   5e7b1:	mov    %eax,%r13d
   5e7b4:	jne    5d176 <_IO_vfscanf+0xc56>
   5e7ba:	mov    0x3616a7(%rip),%rax        # 3bfe68 <_DYNAMIC+0x308>
   5e7c1:	mov    %r12,%r15
   5e7c4:	mov    $0x4,%r13d
   5e7ca:	movl   $0x54,%fs:(%rax)
   5e7d1:	jmpq   5c9b8 <_IO_vfscanf+0x498>
   5e7d6:	testl  $0x1000,-0x5ec(%rbp)
   5e7e0:	je     5e821 <_IO_vfscanf+0x2301>
   5e7e2:	cmp    $0x4,%r12d
   5e7e6:	jbe    5e821 <_IO_vfscanf+0x2301>
   5e7e8:	cmp    $0x28,%r10d
   5e7ec:	jne    5e821 <_IO_vfscanf+0x2301>
   5e7ee:	mov    -0x5f8(%rbp),%rax
   5e7f5:	mov    0x70(%rax),%rbx
   5e7f9:	mov    0x8(%r13),%rax
   5e7fd:	cmp    0x10(%r13),%rax
   5e801:	jae    61efc <_IO_vfscanf+0x59dc>
   5e807:	lea    0x1(%rax),%rdx
   5e80b:	mov    %rdx,0x8(%r13)
   5e80f:	movzbl (%rax),%r10d
   5e813:	movzbl %r10b,%eax
   5e817:	cmpl   $0x6e,(%rbx,%rax,4)
   5e81b:	je     5f600 <_IO_vfscanf+0x30e0>
   5e821:	cmp    $0xffffffff,%r10d
   5e825:	mov    %r13,%r15
   5e828:	je     61ba3 <_IO_vfscanf+0x5683>
   5e82e:	movzbl %r10b,%esi
   5e832:	mov    %r15,%rdi
   5e835:	mov    $0x2,%r13d
   5e83b:	callq  7e5a0 <_IO_sputbackc>
   5e840:	jmpq   5c9b8 <_IO_vfscanf+0x498>
   5e845:	nopl   (%rax)
   5e848:	mov    -0x600(%rbp),%esi
   5e84e:	test   %esi,%esi
   5e850:	je     5f368 <_IO_vfscanf+0x2e48>
   5e856:	cmp    $0xffffffff,%r10d
   5e85a:	je     60b4b <_IO_vfscanf+0x462b>
   5e860:	mov    0x8(%r13),%rax
   5e864:	cmp    0x10(%r13),%rax
   5e868:	jae    61acc <_IO_vfscanf+0x55ac>
   5e86e:	lea    0x1(%rax),%rdx
   5e872:	lea    0x1(%r14),%rbx
   5e876:	mov    %rdx,0x8(%r13)
   5e87a:	movzbl (%rax),%r10d
   5e87e:	lea    -0x570(%rbp),%rax
   5e885:	movq   $0x0,-0x570(%rbp)
   5e890:	movq   $0x0,-0x688(%rbp)
   5e89b:	mov    %rax,-0x628(%rbp)
   5e8a2:	mov    -0x5ec(%rbp),%eax
   5e8a8:	and    $0x2100,%eax
   5e8ad:	mov    %eax,-0x690(%rbp)
   5e8b3:	nopl   0x0(%rax,%rax,1)
   5e8b8:	mov    -0x440(%rbp),%rdx
   5e8bf:	movslq %r10d,%rax
   5e8c2:	movzbl -0x638(%rbp),%edi
   5e8c9:	cmp    (%rdx,%rax,1),%dil
   5e8cd:	je     5ffeb <_IO_vfscanf+0x3acb>
   5e8d3:	mov    -0x678(%rbp),%r11d
   5e8da:	test   %r11d,%r11d
   5e8dd:	je     5e909 <_IO_vfscanf+0x23e9>
   5e8df:	sub    $0x1,%r12d
   5e8e3:	je     5eeee <_IO_vfscanf+0x29ce>
   5e8e9:	mov    0x8(%r13),%rax
   5e8ed:	cmp    0x10(%r13),%rax
   5e8f1:	jae    5eeca <_IO_vfscanf+0x29aa>
   5e8f7:	lea    0x1(%rax),%rdx
   5e8fb:	add    $0x1,%rbx
   5e8ff:	mov    %rdx,0x8(%r13)
   5e903:	movzbl (%rax),%r10d
   5e907:	jmp    5e8b8 <_IO_vfscanf+0x2398>
   5e909:	mov    -0x628(%rbp),%rcx
   5e910:	mov    -0x630(%rbp),%rsi
   5e917:	mov    $0x1,%edx
   5e91c:	mov    -0x640(%rbp),%rdi
   5e923:	mov    %r10b,-0x520(%rbp)
   5e92a:	mov    %r10d,-0x600(%rbp)
   5e931:	callq  ac400 <__mbrtowc>
   5e936:	cmp    $0xfffffffffffffffe,%rax
   5e93a:	mov    -0x600(%rbp),%r10d
   5e941:	je     5f017 <_IO_vfscanf+0x2af7>
   5e947:	mov    -0x690(%rbp),%r9d
   5e94e:	addq   $0x4,-0x640(%rbp)
   5e956:	mov    -0x640(%rbp),%rsi
   5e95d:	test   %r9d,%r9d
   5e960:	je     5ea54 <_IO_vfscanf+0x2534>
   5e966:	mov    -0x608(%rbp),%rax
   5e96d:	movq   $0x0,-0x688(%rbp)
   5e978:	mov    (%rax),%rdi
   5e97b:	mov    -0x658(%rbp),%rax
   5e982:	lea    0x0(,%rax,4),%rdx
   5e98a:	lea    (%rdi,%rdx,1),%rax
   5e98e:	cmp    %rax,%rsi
   5e991:	jne    5e8df <_IO_vfscanf+0x23bf>
   5e997:	mov    -0x658(%rbp),%rax
   5e99e:	mov    %rdx,-0x640(%rbp)
   5e9a5:	mov    %r10d,-0x600(%rbp)
   5e9ac:	lea    0x0(,%rax,8),%rsi
   5e9b4:	callq  1f990 <*ABS*+0x911b0@plt+0x10>
   5e9b9:	test   %rax,%rax
   5e9bc:	mov    -0x600(%rbp),%r10d
   5e9c3:	mov    -0x640(%rbp),%rdx
   5e9ca:	je     63c5b <_IO_vfscanf+0x773b>
   5e9d0:	mov    -0x608(%rbp),%rdi
   5e9d7:	shlq   -0x658(%rbp)
   5e9de:	mov    %rax,(%rdi)
   5e9e1:	add    %rdx,%rax
   5e9e4:	mov    %rax,-0x640(%rbp)
   5e9eb:	jmpq   5e8df <_IO_vfscanf+0x23bf>
   5e9f0:	cmp    -0x448(%rbp),%rbx
   5e9f7:	jne    5d993 <_IO_vfscanf+0x1473>
   5e9fd:	sub    %rax,%rbx
   5ea00:	mov    -0x610(%rbp),%rax
   5ea07:	mov    %r10d,-0x628(%rbp)
   5ea0e:	lea    0x10(%rax),%rdi
   5ea12:	callq  8afb0 <__libc_scratch_buffer_grow_preserve>
   5ea17:	test   %al,%al
   5ea19:	mov    -0x628(%rbp),%r10d
   5ea20:	je     61ee9 <_IO_vfscanf+0x59c9>
   5ea26:	mov    -0x440(%rbp),%rax
   5ea2d:	mov    %rax,%rdx
   5ea30:	add    -0x438(%rbp),%rdx
   5ea37:	add    %rax,%rbx
   5ea3a:	lea    0x1(%rbx),%rax
   5ea3e:	mov    %rax,-0x450(%rbp)
   5ea45:	mov    %rdx,-0x448(%rbp)
   5ea4c:	movb   $0x0,(%rbx)
   5ea4f:	jmpq   5d9a1 <_IO_vfscanf+0x1481>
   5ea54:	movq   $0x0,-0x688(%rbp)
   5ea5f:	jmpq   5e8df <_IO_vfscanf+0x23bf>
   5ea64:	mov    -0x600(%rbp),%edi
   5ea6a:	test   %edi,%edi
   5ea6c:	je     5f140 <_IO_vfscanf+0x2c20>
   5ea72:	mov    -0x5f8(%rbp),%rsi
   5ea79:	movslq %r12d,%rax
   5ea7c:	mov    0x68(%rsi),%rcx
   5ea80:	testb  $0x10,0x1(%rcx,%rax,2)
   5ea85:	je     5f140 <_IO_vfscanf+0x2c20>
   5ea8b:	cmp    -0x448(%rbp),%rbx
   5ea92:	je     63083 <_IO_vfscanf+0x6b63>
   5ea98:	lea    0x1(%rbx),%rax
   5ea9c:	movb   $0x1,-0x628(%rbp)
   5eaa3:	mov    %rax,-0x450(%rbp)
   5eaaa:	mov    %r12b,(%rbx)
   5eaad:	test   %r15d,%r15d
   5eab0:	je     61130 <_IO_vfscanf+0x4c10>
   5eab6:	cmp    $0xffffffff,%r12d
   5eaba:	jne    5dc59 <_IO_vfscanf+0x1739>
   5eac0:	mov    0x3613a1(%rip),%rax        # 3bfe68 <_DYNAMIC+0x308>
   5eac7:	mov    -0x5e4(%rbp),%esi
   5eacd:	mov    %r12d,%r10d
   5ead0:	mov    %r15d,%r12d
   5ead3:	mov    -0x698(%rbp),%r15
   5eada:	mov    %esi,%fs:(%rax)
   5eadd:	mov    -0x450(%rbp),%rax
   5eae4:	test   %rax,%rax
   5eae7:	je     62747 <_IO_vfscanf+0x6227>
   5eaed:	testl  $0x400,-0x5ec(%rbp)
   5eaf7:	jne    622d0 <_IO_vfscanf+0x5db0>
   5eafd:	mov    -0x440(%rbp),%rdx
   5eb04:	mov    %rax,%rcx
   5eb07:	sub    %rdx,%rcx
   5eb0a:	cmp    %rdx,%rax
   5eb0d:	je     622c2 <_IO_vfscanf+0x5da2>
   5eb13:	cmp    $0x2,%rcx
   5eb17:	jne    5eb27 <_IO_vfscanf+0x2607>
   5eb19:	mov    -0x600(%rbp),%edx
   5eb1f:	test   %edx,%edx
   5eb21:	jne    63e20 <_IO_vfscanf+0x7900>
   5eb27:	cmp    %rax,-0x448(%rbp)
   5eb2e:	je     61fbe <_IO_vfscanf+0x5a9e>
   5eb34:	lea    0x1(%rax),%rdx
   5eb38:	mov    %rdx,-0x450(%rbp)
   5eb3f:	movb   $0x0,(%rax)
   5eb42:	cmpq   $0x0,-0x450(%rbp)
   5eb4a:	je     61b46 <_IO_vfscanf+0x5626>
   5eb50:	testb  $0x2,-0x5ec(%rbp)
   5eb57:	jne    60c30 <_IO_vfscanf+0x4710>
   5eb5d:	mov    -0x5ec(%rbp),%ebx
   5eb63:	mov    %ebx,%eax
   5eb65:	test   $0x3,%al
   5eb67:	je     60870 <_IO_vfscanf+0x4350>
   5eb6d:	mov    -0x440(%rbp),%rdi
   5eb74:	mov    %ebx,%edx
   5eb76:	lea    -0x5c8(%rbp),%rsi
   5eb7d:	and    $0x80,%edx
   5eb83:	mov    %r10d,-0x5ec(%rbp)
   5eb8a:	callq  3c1d0 <__strtod_internal>
   5eb8f:	mov    %ebx,%eax
   5eb91:	mov    -0x5ec(%rbp),%r10d
   5eb98:	test   $0x8,%al
   5eb9a:	jne    5fa9c <_IO_vfscanf+0x357c>
   5eba0:	mov    -0x440(%rbp),%rdx
   5eba7:	mov    -0x5c8(%rbp),%rcx
   5ebae:	cmp    %rdx,%rcx
   5ebb1:	je     6346f <_IO_vfscanf+0x6f4f>
   5ebb7:	mov    -0x638(%rbp),%eax
   5ebbd:	test   %eax,%eax
   5ebbf:	jne    61938 <_IO_vfscanf+0x5418>
   5ebc5:	mov    -0x5a8(%rbp),%eax
   5ebcb:	cmp    $0x2f,%eax
   5ebce:	ja     63b31 <_IO_vfscanf+0x7611>
   5ebd4:	mov    %eax,%esi
   5ebd6:	add    -0x598(%rbp),%rsi
   5ebdd:	add    $0x8,%eax
   5ebe0:	mov    %eax,-0x5a8(%rbp)
   5ebe6:	cmpb   $0x0,-0x6a0(%rbp)
   5ebed:	mov    (%rsi),%rax
   5ebf0:	je     5ebfa <_IO_vfscanf+0x26da>
   5ebf2:	xorpd  0x132736(%rip),%xmm0        # 191330 <signmask>
   5ebfa:	movsd  %xmm0,(%rax)
   5ebfe:	cmp    %rdx,%rcx
   5ec01:	je     62185 <_IO_vfscanf+0x5c65>
   5ec07:	addl   $0x1,-0x5e8(%rbp)
   5ec0e:	movl   $0x0,-0x600(%rbp)
   5ec18:	jmpq   5c832 <_IO_vfscanf+0x312>
   5ec1d:	mov    %r13,%rdi
   5ec20:	mov    %rdx,-0x688(%rbp)
   5ec27:	mov    %ecx,-0x678(%rbp)
   5ec2d:	mov    %r8d,-0x668(%rbp)
   5ec34:	mov    %rsi,-0x658(%rbp)
   5ec3b:	callq  7d720 <__uflow>
   5ec40:	cmp    $0xffffffff,%eax
   5ec43:	mov    %eax,%ebx
   5ec45:	mov    -0x658(%rbp),%rsi
   5ec4c:	mov    -0x668(%rbp),%r8d
   5ec53:	mov    -0x678(%rbp),%ecx
   5ec59:	mov    -0x688(%rbp),%rdx
   5ec60:	jne    5e073 <_IO_vfscanf+0x1b53>
   5ec66:	mov    %eax,%r10d
   5ec69:	mov    -0x628(%rbp),%rax
   5ec70:	mov    %r15,-0x658(%rbp)
   5ec77:	mov    -0x638(%rbp),%r15
   5ec7e:	mov    %rsi,-0x668(%rbp)
   5ec85:	mov    %rdx,%r14
   5ec88:	mov    %r8d,%ebx
   5ec8b:	mov    %fs:(%rax),%eax
   5ec8e:	mov    %eax,-0x5e4(%rbp)
   5ec94:	test   %ebx,%ebx
   5ec96:	jne    5c832 <_IO_vfscanf+0x312>
   5ec9c:	testl  $0x2100,-0x5ec(%rbp)
   5eca6:	mov    -0x668(%rbp),%rax
   5ecad:	lea    0x1(%rax),%rbx
   5ecb1:	movb   $0x0,(%rax)
   5ecb4:	je     5ecec <_IO_vfscanf+0x27cc>
   5ecb6:	mov    -0x608(%rbp),%r12
   5ecbd:	mov    %rbx,%rsi
   5ecc0:	mov    (%r12),%rdi
   5ecc4:	sub    %rdi,%rsi
   5ecc7:	cmp    %rsi,-0x658(%rbp)
   5ecce:	je     5ecec <_IO_vfscanf+0x27cc>
   5ecd0:	mov    %r10d,-0x5ec(%rbp)
   5ecd7:	callq  1f990 <*ABS*+0x911b0@plt+0x10>
   5ecdc:	test   %rax,%rax
   5ecdf:	mov    -0x5ec(%rbp),%r10d
   5ece6:	je     5ecec <_IO_vfscanf+0x27cc>
   5ece8:	mov    %rax,(%r12)
   5ecec:	addl   $0x1,-0x5e8(%rbp)
   5ecf3:	movl   $0x0,-0x600(%rbp)
   5ecfd:	mov    %rbx,-0x668(%rbp)
   5ed04:	movq   $0x0,-0x608(%rbp)
   5ed0f:	jmpq   5c832 <_IO_vfscanf+0x312>
   5ed14:	mov    %r12,%rdi
   5ed17:	cmp    $0x1,%rax
   5ed1b:	mov    %r13d,%r12d
   5ed1e:	mov    %rdi,%r13
   5ed21:	jne    61778 <_IO_vfscanf+0x5258>
   5ed27:	mov    -0x600(%rbp),%eax
   5ed2d:	addq   $0x4,-0x640(%rbp)
   5ed35:	mov    -0x640(%rbp),%rsi
   5ed3c:	test   %eax,%eax
   5ed3e:	jne    5ed70 <_IO_vfscanf+0x2850>
   5ed40:	mov    -0x688(%rbp),%eax
   5ed46:	test   %eax,%eax
   5ed48:	je     5ed70 <_IO_vfscanf+0x2850>
   5ed4a:	mov    -0x608(%rbp),%rax
   5ed51:	mov    (%rax),%rdi
   5ed54:	mov    -0x658(%rbp),%rax
   5ed5b:	lea    0x0(,%rax,4),%rbx
   5ed63:	lea    (%rdi,%rbx,1),%rax
   5ed67:	cmp    %rax,%rsi
   5ed6a:	je     63427 <_IO_vfscanf+0x6f07>
   5ed70:	mov    -0x678(%rbp),%eax
   5ed76:	test   %eax,%eax
   5ed78:	jle    5ed87 <_IO_vfscanf+0x2867>
   5ed7a:	subl   $0x1,-0x678(%rbp)
   5ed81:	je     63b22 <_IO_vfscanf+0x7602>
   5ed87:	mov    0x8(%r13),%rax
   5ed8b:	cmp    0x10(%r13),%rax
   5ed8f:	jae    613db <_IO_vfscanf+0x4ebb>
   5ed95:	lea    0x1(%rax),%rdx
   5ed99:	mov    %rdx,0x8(%r13)
   5ed9d:	movzbl (%rax),%r12d
   5eda1:	mov    -0x5f8(%rbp),%rsi
   5eda8:	movslq %r12d,%rax
   5edab:	add    $0x1,%r14
   5edaf:	mov    0x68(%rsi),%rdx
   5edb3:	testb  $0x20,0x1(%rdx,%rax,2)
   5edb8:	je     5d110 <_IO_vfscanf+0xbf0>
   5edbe:	mov    -0x638(%rbp),%r15
   5edc5:	mov    %r12d,%r10d
   5edc8:	movzbl %r10b,%esi
   5edcc:	mov    %r13,%rdi
   5edcf:	mov    %r10d,-0x628(%rbp)
   5edd6:	callq  7e5a0 <_IO_sputbackc>
   5eddb:	mov    -0x628(%rbp),%r10d
   5ede2:	sub    $0x1,%r14
   5ede6:	mov    -0x600(%rbp),%ebx
   5edec:	test   %ebx,%ebx
   5edee:	jne    5c77d <_IO_vfscanf+0x25d>
   5edf4:	testl  $0x2100,-0x5ec(%rbp)
   5edfe:	mov    -0x640(%rbp),%rax
   5ee05:	lea    0x4(%rax),%rbx
   5ee09:	movl   $0x0,(%rax)
   5ee0f:	je     5ee4e <_IO_vfscanf+0x292e>
   5ee11:	mov    -0x608(%rbp),%r12
   5ee18:	mov    %rbx,%rsi
   5ee1b:	mov    (%r12),%rdi
   5ee1f:	sub    %rdi,%rsi
   5ee22:	mov    %rsi,%rax
   5ee25:	sar    $0x2,%rax
   5ee29:	cmp    %rax,-0x658(%rbp)
   5ee30:	je     5ee4e <_IO_vfscanf+0x292e>
   5ee32:	mov    %r10d,-0x5ec(%rbp)
   5ee39:	callq  1f990 <*ABS*+0x911b0@plt+0x10>
   5ee3e:	test   %rax,%rax
   5ee41:	mov    -0x5ec(%rbp),%r10d
   5ee48:	je     5ee4e <_IO_vfscanf+0x292e>
   5ee4a:	mov    %rax,(%r12)
   5ee4e:	addl   $0x1,-0x5e8(%rbp)
   5ee55:	mov    %rbx,-0x640(%rbp)
   5ee5c:	movq   $0x0,-0x608(%rbp)
   5ee67:	jmpq   5c77d <_IO_vfscanf+0x25d>
   5ee6c:	nopl   0x0(%rax)
   5ee70:	mov    %rbx,%rsi
   5ee73:	cmp    $0x1,%rax
   5ee77:	mov    %r13d,%ebx
   5ee7a:	mov    %rsi,%r13
   5ee7d:	jne    616ac <_IO_vfscanf+0x518c>
   5ee83:	mov    -0x628(%rbp),%edi
   5ee89:	addq   $0x4,-0x640(%rbp)
   5ee91:	test   %edi,%edi
   5ee93:	jle    63205 <_IO_vfscanf+0x6ce5>
   5ee99:	mov    0x8(%rsi),%rax
   5ee9d:	cmp    0x10(%rsi),%rax
   5eea1:	jae    61d67 <_IO_vfscanf+0x5847>
   5eea7:	lea    0x1(%rax),%rdx
   5eeab:	mov    %rdx,0x8(%rsi)
   5eeaf:	movzbl (%rax),%ebx
   5eeb2:	add    $0x1,%r14
   5eeb6:	addq   $0x1,-0x638(%rbp)
   5eebe:	subl   $0x1,-0x628(%rbp)
   5eec5:	jmpq   5d2ec <_IO_vfscanf+0xdcc>
   5eeca:	mov    %r13,%rdi
   5eecd:	callq  7d720 <__uflow>
   5eed2:	cmp    $0xffffffff,%eax
   5eed5:	mov    %eax,%r10d
   5eed8:	jne    631fc <_IO_vfscanf+0x6cdc>
   5eede:	mov    0x360f83(%rip),%rax        # 3bfe68 <_DYNAMIC+0x308>
   5eee5:	mov    %fs:(%rax),%eax
   5eee8:	mov    %eax,-0x5e4(%rbp)
   5eeee:	cmpq   $0x0,-0x688(%rbp)
   5eef6:	jne    61d4b <_IO_vfscanf+0x582b>
   5eefc:	cmp    %r14,%rbx
   5eeff:	je     61d3d <_IO_vfscanf+0x581d>
   5ef05:	mov    -0x678(%rbp),%r8d
   5ef0c:	test   %r8d,%r8d
   5ef0f:	jne    5ef80 <_IO_vfscanf+0x2a60>
   5ef11:	mov    -0x690(%rbp),%edi
   5ef17:	mov    -0x640(%rbp),%rax
   5ef1e:	test   %edi,%edi
   5ef20:	lea    0x4(%rax),%r12
   5ef24:	movl   $0x0,(%rax)
   5ef2a:	je     5ef67 <_IO_vfscanf+0x2a47>
   5ef2c:	mov    -0x608(%rbp),%r14
   5ef33:	mov    %r12,%rsi
   5ef36:	mov    (%r14),%rdi
   5ef39:	sub    %rdi,%rsi
   5ef3c:	mov    %rsi,%rax
   5ef3f:	sar    $0x2,%rax
   5ef43:	cmp    %rax,-0x658(%rbp)
   5ef4a:	je     5ef67 <_IO_vfscanf+0x2a47>
   5ef4c:	mov    %r10d,-0x5ec(%rbp)
   5ef53:	callq  1f990 <*ABS*+0x911b0@plt+0x10>
   5ef58:	test   %rax,%rax
   5ef5b:	mov    -0x5ec(%rbp),%r10d
   5ef62:	je     5ef67 <_IO_vfscanf+0x2a47>
   5ef64:	mov    %rax,(%r14)
   5ef67:	addl   $0x1,-0x5e8(%rbp)
   5ef6e:	mov    %r12,-0x640(%rbp)
   5ef75:	movq   $0x0,-0x608(%rbp)
   5ef80:	movl   $0x0,-0x600(%rbp)
   5ef8a:	mov    %rbx,%r14
   5ef8d:	jmpq   5c832 <_IO_vfscanf+0x312>
   5ef92:	testb  $0x1,-0x5ec(%rbp)
   5ef99:	je     5f81c <_IO_vfscanf+0x32fc>
   5ef9f:	mov    -0x638(%rbp),%ebx
   5efa5:	test   %ebx,%ebx
   5efa7:	je     5da39 <_IO_vfscanf+0x1519>
   5efad:	mov    -0x650(%rbp),%rsi
   5efb4:	mov    -0x630(%rbp),%rdi
   5efbb:	xor    %ebx,%ebx
   5efbd:	mov    -0x638(%rbp),%r8d
   5efc4:	mov    (%rsi),%rdx
   5efc7:	mov    %rdx,(%rdi)
   5efca:	mov    0x8(%rsi),%rcx
   5efce:	mov    %rcx,0x8(%rdi)
   5efd2:	mov    0x10(%rsi),%rsi
   5efd6:	mov    %rsi,0x10(%rdi)
   5efda:	mov    %edx,%esi
   5efdc:	xor    %edi,%edi
   5efde:	sub    $0x1,%r8d
   5efe2:	je     636df <_IO_vfscanf+0x71bf>
   5efe8:	cmp    $0x2f,%esi
   5efeb:	ja     63cb0 <_IO_vfscanf+0x7790>
   5eff1:	add    $0x8,%esi
   5eff4:	mov    $0x1,%ebx
   5eff9:	jmp    5efde <_IO_vfscanf+0x2abe>
   5effb:	nopl   0x0(%rax,%rax,1)
   5f000:	movzbl (%rax),%edi
   5f003:	lea    -0x2b(%rdi),%edx
   5f006:	and    $0xfd,%edx
   5f00c:	jne    5d957 <_IO_vfscanf+0x1437>
   5f012:	jmpq   5e821 <_IO_vfscanf+0x2301>
   5f017:	mov    0x360d92(%rip),%rax        # 3bfdb0 <_DYNAMIC+0x250>
   5f01e:	addq   $0x1,-0x688(%rbp)
   5f026:	mov    -0x688(%rbp),%rsi
   5f02d:	mov    %fs:(%rax),%rax
   5f031:	mov    (%rax),%rax
   5f034:	mov    0xa8(%rax),%eax
   5f03a:	cmp    %rax,%rsi
   5f03d:	jb     5e8e9 <_IO_vfscanf+0x23c9>
   5f043:	lea    0x1318a6(%rip),%rcx        # 1908f0 <__PRETTY_FUNCTION__.12472>
   5f04a:	lea    0x12aa07(%rip),%rsi        # 189a58 <null+0x1a>
   5f051:	lea    0x12aa0a(%rip),%rdi        # 189a62 <null+0x24>
   5f058:	mov    $0xa76,%edx
   5f05d:	callq  2de10 <__assert_fail>
   5f062:	nopw   0x0(%rax,%rax,1)
   5f068:	and    $0x8,%eax
   5f06b:	mov    %eax,-0x678(%rbp)
   5f071:	jne    5d67d <_IO_vfscanf+0x115d>
   5f077:	mov    %esi,%eax
   5f079:	test   $0x21,%ah
   5f07c:	je     60b82 <_IO_vfscanf+0x4662>
   5f082:	mov    -0x638(%rbp),%eax
   5f088:	test   %eax,%eax
   5f08a:	jne    611ac <_IO_vfscanf+0x4c8c>
   5f090:	mov    -0x5a8(%rbp),%ecx
   5f096:	cmp    $0x2f,%ecx
   5f099:	ja     62f20 <_IO_vfscanf+0x6a00>
   5f09f:	mov    %ecx,%eax
   5f0a1:	add    -0x598(%rbp),%rax
   5f0a8:	add    $0x8,%ecx
   5f0ab:	mov    %ecx,-0x5a8(%rbp)
   5f0b1:	mov    (%rax),%rax
   5f0b4:	mov    %rax,-0x608(%rbp)
   5f0bb:	mov    %rax,%rbx
   5f0be:	test   %rbx,%rbx
   5f0c1:	mov    %r10d,-0x638(%rbp)
   5f0c8:	mov    %rdx,-0x628(%rbp)
   5f0cf:	je     62f12 <_IO_vfscanf+0x69f2>
   5f0d5:	mov    $0x64,%edi
   5f0da:	callq  1f998 <*ABS*+0x911b0@plt+0x18>
   5f0df:	test   %rax,%rax
   5f0e2:	mov    %rax,(%rbx)
   5f0e5:	je     618bf <_IO_vfscanf+0x539f>
   5f0eb:	mov    -0x660(%rbp),%rdi
   5f0f2:	mov    -0x628(%rbp),%rdx
   5f0f9:	mov    -0x638(%rbp),%r10d
   5f100:	test   %rdi,%rdi
   5f103:	je     61883 <_IO_vfscanf+0x5363>
   5f109:	mov    (%rdi),%rcx
   5f10c:	cmp    $0x20,%rcx
   5f110:	lea    0x1(%rcx),%rsi
   5f114:	je     61883 <_IO_vfscanf+0x5363>
   5f11a:	mov    %rsi,(%rdi)
   5f11d:	mov    -0x608(%rbp),%rsi
   5f124:	mov    %rax,-0x668(%rbp)
   5f12b:	movq   $0x64,-0x658(%rbp)
   5f136:	mov    %rsi,0x10(%rdi,%rcx,8)
   5f13b:	jmpq   5d67d <_IO_vfscanf+0x115d>
   5f140:	cmpb   $0x0,-0x628(%rbp)
   5f147:	je     5dcb9 <_IO_vfscanf+0x1799>
   5f14d:	mov    -0x5f8(%rbp),%rdi
   5f154:	movzbl %r12b,%eax
   5f158:	movzbl -0x688(%rbp),%esi
   5f15f:	mov    0x70(%rdi),%rcx
   5f163:	cmp    (%rcx,%rax,4),%sil
   5f167:	jne    5dcb9 <_IO_vfscanf+0x1799>
   5f16d:	cmp    -0x448(%rbp),%rbx
   5f174:	je     62ee8 <_IO_vfscanf+0x69c8>
   5f17a:	lea    0x1(%rbx),%rax
   5f17e:	mov    %rax,-0x450(%rbp)
   5f185:	movzbl -0x688(%rbp),%eax
   5f18c:	mov    %al,(%rbx)
   5f18e:	movzbl -0x628(%rbp),%eax
   5f195:	mov    %al,-0x690(%rbp)
   5f19b:	mov    %al,-0x678(%rbp)
   5f1a1:	jmpq   5eaad <_IO_vfscanf+0x258d>
   5f1a6:	mov    %r13,%r15
   5f1a9:	mov    $0x2,%r13d
   5f1af:	jmpq   5c9b8 <_IO_vfscanf+0x498>
   5f1b4:	movb   $0x0,-0x6a0(%rbp)
   5f1bb:	jmpq   5db1f <_IO_vfscanf+0x15ff>
   5f1c0:	cmpb   $0x0,(%rax)
   5f1c3:	je     5f340 <_IO_vfscanf+0x2e20>
   5f1c9:	mov    -0x620(%rbp),%rsi
   5f1d0:	test   %rsi,%rsi
   5f1d3:	je     6213d <_IO_vfscanf+0x5c1d>
   5f1d9:	cmpb   $0x0,(%rsi)
   5f1dc:	jne    6213d <_IO_vfscanf+0x5c1d>
   5f1e2:	mov    -0x620(%rbp),%rax
   5f1e9:	mov    %ecx,%ebx
   5f1eb:	movzbl (%rax),%esi
   5f1ee:	mov    %rax,%r11
   5f1f1:	test   %sil,%sil
   5f1f4:	jne    5f21f <_IO_vfscanf+0x2cff>
   5f1f6:	jmpq   5f461 <_IO_vfscanf+0x2f41>
   5f1fb:	nopl   0x0(%rax,%rax,1)
   5f200:	lea    0x1(%rax),%rdx
   5f204:	mov    %rdx,-0x450(%rbp)
   5f20b:	mov    %sil,(%rax)
   5f20e:	add    $0x1,%r11
   5f212:	movzbl (%r11),%esi
   5f216:	test   %sil,%sil
   5f219:	je     5f45f <_IO_vfscanf+0x2f3f>
   5f21f:	mov    -0x450(%rbp),%rax
   5f226:	cmp    -0x448(%rbp),%rax
   5f22d:	jne    5f200 <_IO_vfscanf+0x2ce0>
   5f22f:	test   %rax,%rax
   5f232:	mov    %sil,-0x6a8(%rbp)
   5f239:	je     5f20e <_IO_vfscanf+0x2cee>
   5f23b:	sub    -0x440(%rbp),%rax
   5f242:	mov    -0x6b0(%rbp),%rdi
   5f249:	mov    %r11,-0x6d0(%rbp)
   5f250:	mov    %rax,-0x6c0(%rbp)
   5f257:	callq  8afb0 <__libc_scratch_buffer_grow_preserve>
   5f25c:	test   %al,%al
   5f25e:	mov    -0x6d0(%rbp),%r11
   5f265:	movzbl -0x6a8(%rbp),%esi
   5f26c:	je     61b69 <_IO_vfscanf+0x5649>
   5f272:	mov    -0x440(%rbp),%rax
   5f279:	mov    %rax,%rdx
   5f27c:	add    -0x6c0(%rbp),%rax
   5f283:	add    -0x438(%rbp),%rdx
   5f28a:	mov    %rdx,-0x448(%rbp)
   5f291:	lea    0x1(%rax),%rdx
   5f295:	mov    %rdx,-0x450(%rbp)
   5f29c:	mov    %sil,(%rax)
   5f29f:	jmpq   5f20e <_IO_vfscanf+0x2cee>
   5f2a4:	mov    %r13,%rdi
   5f2a7:	mov    %r8,-0x628(%rbp)
   5f2ae:	callq  7d720 <__uflow>
   5f2b3:	cmp    $0xffffffff,%eax
   5f2b6:	mov    %eax,%r10d
   5f2b9:	mov    -0x628(%rbp),%r8
   5f2c0:	jne    5d7a9 <_IO_vfscanf+0x1289>
   5f2c6:	mov    %r13,%r15
   5f2c9:	jmpq   5cf92 <_IO_vfscanf+0xa72>
   5f2ce:	mov    0x360b93(%rip),%rax        # 3bfe68 <_DYNAMIC+0x308>
   5f2d5:	mov    -0x5e4(%rbp),%esi
   5f2db:	mov    %r13,%r15
   5f2de:	mov    %esi,%fs:(%rax)
   5f2e1:	mov    -0x5e8(%rbp),%r9d
   5f2e8:	mov    $0x1,%r13d
   5f2ee:	test   %r9d,%r9d
   5f2f1:	jne    5c9b8 <_IO_vfscanf+0x498>
   5f2f7:	movl   $0xffffffff,-0x5e8(%rbp)
   5f301:	jmpq   5c9b8 <_IO_vfscanf+0x498>
   5f306:	mov    0x360b5b(%rip),%rax        # 3bfe68 <_DYNAMIC+0x308>
   5f30d:	mov    -0x5e4(%rbp),%esi
   5f313:	mov    %r13,%r15
   5f316:	mov    %esi,%fs:(%rax)
   5f319:	mov    -0x5e8(%rbp),%r11d
   5f320:	mov    $0x1,%r13d
   5f326:	test   %r11d,%r11d
   5f329:	jne    5c9b8 <_IO_vfscanf+0x498>
   5f32f:	movl   $0xffffffff,-0x5e8(%rbp)
   5f339:	jmpq   5c9b8 <_IO_vfscanf+0x498>
   5f33e:	mov    %ebx,%ecx
   5f340:	test   %r15d,%r15d
   5f343:	jle    5f348 <_IO_vfscanf+0x2e28>
   5f345:	mov    %ecx,%r15d
   5f348:	movb   $0x1,-0x678(%rbp)
   5f34f:	jmpq   5eaad <_IO_vfscanf+0x258d>
   5f354:	mov    -0x440(%rbp),%rdx
   5f35b:	add    $0x1,%r15
   5f35f:	movb   $0x1,(%rdx,%rax,1)
   5f363:	jmpq   5d723 <_IO_vfscanf+0x1203>
   5f368:	cmp    $0xffffffff,%r10d
   5f36c:	je     60d18 <_IO_vfscanf+0x47f8>
   5f372:	mov    0x8(%r13),%rax
   5f376:	cmp    0x10(%r13),%rax
   5f37a:	jae    61d21 <_IO_vfscanf+0x5801>
   5f380:	lea    0x1(%rax),%rdx
   5f384:	mov    %rdx,0x8(%r13)
   5f388:	movzbl (%rax),%r10d
   5f38c:	mov    -0x440(%rbp),%rcx
   5f393:	movslq %r10d,%rax
   5f396:	movzbl -0x638(%rbp),%edi
   5f39d:	lea    0x1(%r14),%rbx
   5f3a1:	cmp    (%rcx,%rax,1),%dil
   5f3a5:	je     6130e <_IO_vfscanf+0x4dee>
   5f3ab:	mov    -0x5ec(%rbp),%eax
   5f3b1:	mov    %r15,-0x688(%rbp)
   5f3b8:	mov    %r12d,%r15d
   5f3bb:	mov    %r14,-0x690(%rbp)
   5f3c2:	mov    %r10d,%r12d
   5f3c5:	mov    %rbx,%r14
   5f3c8:	mov    %r13,%rbx
   5f3cb:	mov    -0x668(%rbp),%r13
   5f3d2:	and    $0x2100,%eax
   5f3d7:	mov    %eax,-0x628(%rbp)
   5f3dd:	jmp    5f43e <_IO_vfscanf+0x2f1e>
   5f3df:	mov    -0x608(%rbp),%rsi
   5f3e6:	mov    %rax,%r13
   5f3e9:	mov    (%rsi),%rdi
   5f3ec:	mov    -0x658(%rbp),%rsi
   5f3f3:	add    %rdi,%rsi
   5f3f6:	cmp    %rsi,%rax
   5f3f9:	je     6000e <_IO_vfscanf+0x3aee>
   5f3ff:	sub    $0x1,%r15d
   5f403:	je     5ffc8 <_IO_vfscanf+0x3aa8>
   5f409:	mov    0x8(%rbx),%rax
   5f40d:	cmp    0x10(%rbx),%rax
   5f411:	jae    5f47d <_IO_vfscanf+0x2f5d>
   5f413:	lea    0x1(%rax),%rsi
   5f417:	mov    %rsi,0x8(%rbx)
   5f41b:	movzbl (%rax),%r12d
   5f41f:	mov    -0x440(%rbp),%rsi
   5f426:	movslq %r12d,%rax
   5f429:	movzbl -0x638(%rbp),%edi
   5f430:	add    $0x1,%r14
   5f434:	cmp    (%rsi,%rax,1),%dil
   5f438:	je     612f0 <_IO_vfscanf+0x4dd0>
   5f43e:	mov    -0x678(%rbp),%ecx
   5f444:	test   %ecx,%ecx
   5f446:	jne    5f3ff <_IO_vfscanf+0x2edf>
   5f448:	mov    -0x628(%rbp),%edx
   5f44e:	lea    0x1(%r13),%rax
   5f452:	mov    %r12b,0x0(%r13)
   5f456:	test   %edx,%edx
   5f458:	jne    5f3df <_IO_vfscanf+0x2ebf>
   5f45a:	mov    %rax,%r13
   5f45d:	jmp    5f3ff <_IO_vfscanf+0x2edf>
   5f45f:	mov    %ebx,%ecx
   5f461:	test   %r15d,%r15d
   5f464:	cmovg  %ecx,%r15d
   5f468:	jmpq   5eaad <_IO_vfscanf+0x258d>
   5f46d:	pxor   %xmm0,%xmm0
   5f471:	movaps %xmm0,-0x450(%rbp)
   5f478:	jmpq   5e1dc <_IO_vfscanf+0x1cbc>
   5f47d:	mov    %rbx,%rdi
   5f480:	callq  7d720 <__uflow>
   5f485:	cmp    $0xffffffff,%eax
   5f488:	mov    %eax,%r12d
   5f48b:	jne    5f41f <_IO_vfscanf+0x2eff>
   5f48d:	mov    %eax,%r10d
   5f490:	mov    0x3609d1(%rip),%rax        # 3bfe68 <_DYNAMIC+0x308>
   5f497:	mov    %r13,-0x668(%rbp)
   5f49e:	mov    -0x688(%rbp),%r15
   5f4a5:	mov    %rbx,%r13
   5f4a8:	mov    %r14,%rbx
   5f4ab:	mov    -0x690(%rbp),%r14
   5f4b2:	mov    %fs:(%rax),%eax
   5f4b5:	mov    %eax,-0x5e4(%rbp)
   5f4bb:	cmp    %r14,%rbx
   5f4be:	je     61914 <_IO_vfscanf+0x53f4>
   5f4c4:	mov    -0x678(%rbp),%eax
   5f4ca:	mov    %rbx,%r14
   5f4cd:	test   %eax,%eax
   5f4cf:	jne    5c832 <_IO_vfscanf+0x312>
   5f4d5:	testl  $0x2100,-0x5ec(%rbp)
   5f4df:	mov    -0x668(%rbp),%rax
   5f4e6:	lea    0x1(%rax),%r12
   5f4ea:	movb   $0x0,(%rax)
   5f4ed:	je     5f523 <_IO_vfscanf+0x3003>
   5f4ef:	mov    -0x608(%rbp),%r14
   5f4f6:	mov    %r12,%rsi
   5f4f9:	mov    (%r14),%rdi
   5f4fc:	sub    %rdi,%rsi
   5f4ff:	cmp    %rsi,-0x658(%rbp)
   5f506:	je     5f523 <_IO_vfscanf+0x3003>
   5f508:	mov    %r10d,-0x5ec(%rbp)
   5f50f:	callq  1f990 <*ABS*+0x911b0@plt+0x10>
   5f514:	test   %rax,%rax
   5f517:	mov    -0x5ec(%rbp),%r10d
   5f51e:	je     5f523 <_IO_vfscanf+0x3003>
   5f520:	mov    %rax,(%r14)
   5f523:	addl   $0x1,-0x5e8(%rbp)
   5f52a:	movl   $0x0,-0x600(%rbp)
   5f534:	mov    %rbx,%r14
   5f537:	mov    %r12,-0x668(%rbp)
   5f53e:	movq   $0x0,-0x608(%rbp)
   5f549:	jmpq   5c832 <_IO_vfscanf+0x312>
   5f54e:	mov    -0x638(%rbp),%r11d
   5f555:	test   %r11d,%r11d
   5f558:	jne    5fee4 <_IO_vfscanf+0x39c4>
   5f55e:	mov    -0x5a8(%rbp),%edx
   5f564:	cmp    $0x2f,%edx
   5f567:	ja     6338a <_IO_vfscanf+0x6e6a>
   5f56d:	mov    %edx,%eax
   5f56f:	add    -0x598(%rbp),%rax
   5f576:	add    $0x8,%edx
   5f579:	mov    %edx,-0x5a8(%rbp)
   5f57f:	mov    (%rax),%rax
   5f582:	mov    %rax,-0x640(%rbp)
   5f589:	cmpq   $0x0,-0x640(%rbp)
   5f591:	jne    5d274 <_IO_vfscanf+0xd54>
   5f597:	mov    %r13,%r15
   5f59a:	mov    $0x2,%r13d
   5f5a0:	jmpq   5c9b8 <_IO_vfscanf+0x498>
   5f5a5:	nopl   (%rax)
   5f5a8:	mov    -0x638(%rbp),%eax
   5f5ae:	test   %eax,%eax
   5f5b0:	jne    5ff76 <_IO_vfscanf+0x3a56>
   5f5b6:	mov    -0x5a8(%rbp),%edx
   5f5bc:	cmp    $0x2f,%edx
   5f5bf:	ja     63b0b <_IO_vfscanf+0x75eb>
   5f5c5:	mov    %edx,%eax
   5f5c7:	add    -0x598(%rbp),%rax
   5f5ce:	add    $0x8,%edx
   5f5d1:	mov    %edx,-0x5a8(%rbp)
   5f5d7:	mov    (%rax),%rax
   5f5da:	mov    %rax,-0x640(%rbp)
   5f5e1:	cmpq   $0x0,-0x640(%rbp)
   5f5e9:	jne    5d08a <_IO_vfscanf+0xb6a>
   5f5ef:	mov    %r13,%r15
   5f5f2:	mov    $0x2,%r13d
   5f5f8:	jmpq   5c9b8 <_IO_vfscanf+0x498>
   5f5fd:	nopl   (%rax)
   5f600:	mov    -0x5f8(%rbp),%rax
   5f607:	mov    0x70(%rax),%rbx
   5f60b:	mov    0x8(%r13),%rax
   5f60f:	cmp    0x10(%r13),%rax
   5f613:	jae    61bb0 <_IO_vfscanf+0x5690>
   5f619:	lea    0x1(%rax),%rdx
   5f61d:	mov    %rdx,0x8(%r13)
   5f621:	movzbl (%rax),%r10d
   5f625:	movzbl %r10b,%eax
   5f629:	cmpl   $0x69,(%rbx,%rax,4)
   5f62d:	jne    5e821 <_IO_vfscanf+0x2301>
   5f633:	mov    -0x5f8(%rbp),%rax
   5f63a:	mov    0x70(%rax),%rbx
   5f63e:	mov    0x8(%r13),%rax
   5f642:	cmp    0x10(%r13),%rax
   5f646:	jae    61b79 <_IO_vfscanf+0x5659>
   5f64c:	lea    0x1(%rax),%rdx
   5f650:	mov    %rdx,0x8(%r13)
   5f654:	movzbl (%rax),%r10d
   5f658:	movzbl %r10b,%eax
   5f65c:	cmpl   $0x6c,(%rbx,%rax,4)
   5f660:	jne    5e821 <_IO_vfscanf+0x2301>
   5f666:	mov    0x8(%r13),%rax
   5f66a:	cmp    0x10(%r13),%rax
   5f66e:	jae    6163d <_IO_vfscanf+0x511d>
   5f674:	lea    0x1(%rax),%rdx
   5f678:	mov    %rdx,0x8(%r13)
   5f67c:	movzbl (%rax),%r10d
   5f680:	add    $0x4,%r14
   5f684:	cmp    $0x29,%r10d
   5f688:	jne    6300e <_IO_vfscanf+0x6aee>
   5f68e:	mov    -0x450(%rbp),%rax
   5f695:	cmp    -0x448(%rbp),%rax
   5f69c:	je     61619 <_IO_vfscanf+0x50f9>
   5f6a2:	lea    0x1(%rax),%rdx
   5f6a6:	mov    %rdx,-0x450(%rbp)
   5f6ad:	movb   $0x30,(%rax)
   5f6b0:	jmpq   5d97f <_IO_vfscanf+0x145f>
   5f6b5:	mov    0x3607ac(%rip),%rax        # 3bfe68 <_DYNAMIC+0x308>
   5f6bc:	movl   $0x16,%fs:(%rax)
   5f6c3:	jmpq   5c849 <_IO_vfscanf+0x329>
   5f6c8:	mov    0x360799(%rip),%rax        # 3bfe68 <_DYNAMIC+0x308>
   5f6cf:	mov    %r13,%r15
   5f6d2:	movl   $0xffffffff,-0x5e8(%rbp)
   5f6dc:	xor    %r13d,%r13d
   5f6df:	movl   $0xc,%fs:(%rax)
   5f6e6:	jmpq   5c9b8 <_IO_vfscanf+0x498>
   5f6eb:	test   %rbx,%rbx
   5f6ee:	mov    %r10d,-0x678(%rbp)
   5f6f5:	je     5d7db <_IO_vfscanf+0x12bb>
   5f6fb:	mov    -0x610(%rbp),%rax
   5f702:	mov    %r8,-0x628(%rbp)
   5f709:	sub    -0x440(%rbp),%rbx
   5f710:	lea    0x10(%rax),%rdi
   5f714:	callq  8afb0 <__libc_scratch_buffer_grow_preserve>
   5f719:	test   %al,%al
   5f71b:	mov    -0x628(%rbp),%r8
   5f722:	mov    -0x678(%rbp),%r10d
   5f729:	je     61f4f <_IO_vfscanf+0x5a2f>
   5f72f:	mov    -0x440(%rbp),%rax
   5f736:	mov    %rax,%rdx
   5f739:	add    -0x438(%rbp),%rdx
   5f740:	add    %rax,%rbx
   5f743:	lea    0x1(%rbx),%rax
   5f747:	mov    %rax,-0x450(%rbp)
   5f74e:	mov    %rdx,-0x448(%rbp)
   5f755:	mov    %r10b,(%rbx)
   5f758:	jmpq   5d7db <_IO_vfscanf+0x12bb>
   5f75d:	lea    0x2(%rdx),%r15
   5f761:	movb   $0x1,-0x638(%rbp)
   5f768:	jmpq   5d68e <_IO_vfscanf+0x116e>
   5f76d:	test   %rbx,%rbx
   5f770:	je     5d847 <_IO_vfscanf+0x1327>
   5f776:	mov    -0x610(%rbp),%rax
   5f77d:	sub    -0x440(%rbp),%rbx
   5f784:	lea    0x10(%rax),%rdi
   5f788:	callq  8afb0 <__libc_scratch_buffer_grow_preserve>
   5f78d:	test   %al,%al
   5f78f:	je     61e38 <_IO_vfscanf+0x5918>
   5f795:	mov    -0x440(%rbp),%rax
   5f79c:	mov    %rax,%rdx
   5f79f:	add    -0x438(%rbp),%rdx
   5f7a6:	add    %rax,%rbx
   5f7a9:	lea    0x1(%rbx),%rax
   5f7ad:	mov    %rax,-0x450(%rbp)
   5f7b4:	mov    %rdx,-0x448(%rbp)
   5f7bb:	movb   $0x30,(%rbx)
   5f7be:	jmpq   5d847 <_IO_vfscanf+0x1327>
   5f7c3:	mov    %r13,%rdi
   5f7c6:	callq  7d720 <__uflow>
   5f7cb:	cmp    $0xffffffff,%eax
   5f7ce:	mov    %eax,%r12d
   5f7d1:	jne    5dc73 <_IO_vfscanf+0x1753>
   5f7d7:	mov    %eax,%r10d
   5f7da:	mov    0x360687(%rip),%rax        # 3bfe68 <_DYNAMIC+0x308>
   5f7e1:	mov    %r15d,%r12d
   5f7e4:	mov    -0x698(%rbp),%r15
   5f7eb:	mov    %fs:(%rax),%eax
   5f7ee:	mov    %eax,-0x5e4(%rbp)
   5f7f4:	jmpq   5eadd <_IO_vfscanf+0x25bd>
   5f7f9:	mov    0x360668(%rip),%rax        # 3bfe68 <_DYNAMIC+0x308>
   5f800:	mov    %r13,%r15
   5f803:	movl   $0xffffffff,-0x5e8(%rbp)
   5f80d:	xor    %r13d,%r13d
   5f810:	movl   $0xc,%fs:(%rax)
   5f817:	jmpq   5c9b8 <_IO_vfscanf+0x498>
   5f81c:	testb  $0x4,-0x5ec(%rbp)
   5f823:	je     61053 <_IO_vfscanf+0x4b33>
   5f829:	mov    -0x638(%rbp),%r11d
   5f830:	test   %r11d,%r11d
   5f833:	jne    61380 <_IO_vfscanf+0x4e60>
   5f839:	mov    -0x5a8(%rbp),%ecx
   5f83f:	cmp    $0x2f,%ecx
   5f842:	ja     63329 <_IO_vfscanf+0x6e09>
   5f848:	mov    %ecx,%edx
   5f84a:	add    -0x598(%rbp),%rdx
   5f851:	add    $0x8,%ecx
   5f854:	mov    %ecx,-0x5a8(%rbp)
   5f85a:	mov    (%rdx),%rdx
   5f85d:	mov    %ax,(%rdx)
   5f860:	jmpq   5da60 <_IO_vfscanf+0x1540>
   5f865:	testb  $0x4,-0x5ec(%rbp)
   5f86c:	je     60f70 <_IO_vfscanf+0x4a50>
   5f872:	mov    -0x638(%rbp),%eax
   5f878:	test   %eax,%eax
   5f87a:	jne    61331 <_IO_vfscanf+0x4e11>
   5f880:	mov    -0x5a8(%rbp),%edx
   5f886:	cmp    $0x2f,%edx
   5f889:	ja     6203f <_IO_vfscanf+0x5b1f>
   5f88f:	mov    %edx,%eax
   5f891:	add    -0x598(%rbp),%rax
   5f898:	add    $0x8,%edx
   5f89b:	mov    %edx,-0x5a8(%rbp)
   5f8a1:	mov    (%rax),%rax
   5f8a4:	mov    %r14w,(%rax)
   5f8a8:	movl   $0x0,-0x600(%rbp)
   5f8b2:	jmpq   5c832 <_IO_vfscanf+0x312>
   5f8b7:	testb  $0x4,-0x5ec(%rbp)
   5f8be:	je     60a40 <_IO_vfscanf+0x4520>
   5f8c4:	mov    -0x638(%rbp),%ecx
   5f8ca:	test   %ecx,%ecx
   5f8cc:	je     5f839 <_IO_vfscanf+0x3319>
   5f8d2:	mov    -0x650(%rbp),%rsi
   5f8d9:	mov    -0x630(%rbp),%rdi
   5f8e0:	xor    %ebx,%ebx
   5f8e2:	mov    (%rsi),%rdx
   5f8e5:	mov    %rdx,(%rdi)
   5f8e8:	mov    0x8(%rsi),%rcx
   5f8ec:	mov    %rcx,0x8(%rdi)
   5f8f0:	mov    0x10(%rsi),%rsi
   5f8f4:	mov    %rsi,0x10(%rdi)
   5f8f8:	mov    %edx,%esi
   5f8fa:	xor    %edi,%edi
   5f8fc:	subl   $0x1,-0x638(%rbp)
   5f903:	je     637ac <_IO_vfscanf+0x728c>
   5f909:	cmp    $0x2f,%esi
   5f90c:	ja     6388a <_IO_vfscanf+0x736a>
   5f912:	add    $0x8,%esi
   5f915:	mov    $0x1,%ebx
   5f91a:	jmp    5f8fc <_IO_vfscanf+0x33dc>
   5f91c:	nopl   0x0(%rax)
   5f920:	testb  $0xa,-0x600(%rbp)
   5f927:	jne    5d891 <_IO_vfscanf+0x1371>
   5f92d:	xor    %eax,%eax
   5f92f:	test   %r12d,%r12d
   5f932:	setg   %al
   5f935:	sub    %eax,%r12d
   5f938:	cmp    $0xffffffff,%r10d
   5f93c:	je     618f5 <_IO_vfscanf+0x53d5>
   5f942:	mov    0x8(%r13),%rax
   5f946:	cmp    0x10(%r13),%rax
   5f94a:	jae    63ad8 <_IO_vfscanf+0x75b8>
   5f950:	lea    0x1(%rax),%rdx
   5f954:	mov    %rdx,0x8(%r13)
   5f958:	movzbl (%rax),%r10d
   5f95c:	add    $0x1,%r14
   5f960:	movl   $0x10,-0x600(%rbp)
   5f96a:	jmpq   5d8b4 <_IO_vfscanf+0x1394>
   5f96f:	mov    %r13,%r15
   5f972:	mov    0x3604ef(%rip),%rax        # 3bfe68 <_DYNAMIC+0x308>
   5f979:	xor    %r13d,%r13d
   5f97c:	movl   $0xffffffff,-0x5e8(%rbp)
   5f986:	movl   $0xc,%fs:(%rax)
   5f98d:	jmpq   5c9b8 <_IO_vfscanf+0x498>
   5f992:	mov    %r13,%r15
   5f995:	mov    $0x2,%r13d
   5f99b:	jmpq   5c9b8 <_IO_vfscanf+0x498>
   5f9a0:	mov    -0x450(%rbp),%rax
   5f9a7:	cmp    -0x448(%rbp),%rax
   5f9ae:	je     61cf0 <_IO_vfscanf+0x57d0>
   5f9b4:	lea    0x1(%rax),%rdx
   5f9b8:	mov    %rdx,-0x450(%rbp)
   5f9bf:	mov    %r10b,(%rax)
   5f9c2:	test   %r12d,%r12d
   5f9c5:	je     614e3 <_IO_vfscanf+0x4fc3>
   5f9cb:	mov    0x8(%r13),%rax
   5f9cf:	cmp    0x10(%r13),%rax
   5f9d3:	jae    6226c <_IO_vfscanf+0x5d4c>
   5f9d9:	lea    0x1(%rax),%rdx
   5f9dd:	mov    %rdx,0x8(%r13)
   5f9e1:	movzbl (%rax),%eax
   5f9e4:	mov    -0x5f8(%rbp),%rsi
   5f9eb:	movzbl %al,%edx
   5f9ee:	mov    0x70(%rsi),%rcx
   5f9f2:	cmpl   $0x61,(%rcx,%rdx,4)
   5f9f6:	jne    61fb0 <_IO_vfscanf+0x5a90>
   5f9fc:	xor    %edx,%edx
   5f9fe:	test   %r12d,%r12d
   5fa01:	setg   %dl
   5fa04:	sub    %edx,%r12d
   5fa07:	mov    -0x450(%rbp),%rdx
   5fa0e:	cmp    -0x448(%rbp),%rdx
   5fa15:	je     62019 <_IO_vfscanf+0x5af9>
   5fa1b:	lea    0x1(%rdx),%rcx
   5fa1f:	mov    %rcx,-0x450(%rbp)
   5fa26:	mov    %al,(%rdx)
   5fa28:	test   %r12d,%r12d
   5fa2b:	je     6200b <_IO_vfscanf+0x5aeb>
   5fa31:	mov    0x8(%r13),%rax
   5fa35:	cmp    0x10(%r13),%rax
   5fa39:	jae    61fed <_IO_vfscanf+0x5acd>
   5fa3f:	lea    0x1(%rax),%rdx
   5fa43:	add    $0x2,%r14
   5fa47:	mov    %rdx,0x8(%r13)
   5fa4b:	movzbl (%rax),%r10d
   5fa4f:	mov    -0x5f8(%rbp),%rdi
   5fa56:	movzbl %r10b,%eax
   5fa5a:	mov    0x70(%rdi),%rdx
   5fa5e:	cmpl   $0x6e,(%rdx,%rax,4)
   5fa62:	jne    61fdf <_IO_vfscanf+0x5abf>
   5fa68:	mov    -0x450(%rbp),%rax
   5fa6f:	cmp    -0x448(%rbp),%rax
   5fa76:	movsbl %r10b,%esi
   5fa7a:	je     62c6f <_IO_vfscanf+0x674f>
   5fa80:	lea    0x1(%rax),%rdx
   5fa84:	mov    %rdx,-0x450(%rbp)
   5fa8b:	mov    %r10b,(%rax)
   5fa8e:	mov    -0x450(%rbp),%rax
   5fa95:	jmpq   5eb27 <_IO_vfscanf+0x2607>
   5fa9a:	fstp   %st(0)
   5fa9c:	mov    -0x440(%rbp),%rax
   5faa3:	cmp    %rax,-0x5c8(%rbp)
   5faaa:	jne    5c77d <_IO_vfscanf+0x25d>
   5fab0:	mov    %r13,%r15
   5fab3:	mov    $0x2,%r13d
   5fab9:	jmpq   5c9b8 <_IO_vfscanf+0x498>
   5fabe:	mov    %r13,%r15
   5fac1:	mov    0x3603a0(%rip),%rdx        # 3bfe68 <_DYNAMIC+0x308>
   5fac8:	jmpq   5e134 <_IO_vfscanf+0x1c14>
   5facd:	mov    -0x5ec(%rbp),%edi
   5fad3:	and    $0x2100,%edi
   5fad9:	mov    %edi,-0x5ec(%rbp)
   5fadf:	jne    60d4e <_IO_vfscanf+0x482e>
   5fae5:	mov    -0x668(%rbp),%rbx
   5faec:	mov    %r12d,%edi
   5faef:	mov    %rax,%r14
   5faf2:	mov    %r15,%r12
   5faf5:	mov    %r10d,%eax
   5faf8:	mov    %edi,%r15d
   5fafb:	add    $0x1,%rbx
   5faff:	mov    %r15d,%edx
   5fb02:	mov    %al,-0x1(%rbx)
   5fb05:	sub    %ebx,%edx
   5fb07:	add    -0x668(%rbp),%edx
   5fb0d:	test   %edx,%edx
   5fb0f:	jle    613d0 <_IO_vfscanf+0x4eb0>
   5fb15:	mov    0x8(%r13),%rax
   5fb19:	cmp    %rax,0x10(%r13)
   5fb1d:	jbe    5fe50 <_IO_vfscanf+0x3930>
   5fb23:	lea    0x1(%rax),%rdx
   5fb27:	mov    %rdx,0x8(%r13)
   5fb2b:	movzbl (%rax),%eax
   5fb2e:	add    $0x1,%r14
   5fb32:	jmp    5fafb <_IO_vfscanf+0x35db>
   5fb34:	movl   $0x65,-0x6a4(%rbp)
   5fb3e:	movb   $0x65,-0x688(%rbp)
   5fb45:	xor    %edx,%edx
   5fb47:	jmpq   5dbd2 <_IO_vfscanf+0x16b2>
   5fb4c:	mov    -0x6b8(%rbp),%esi
   5fb52:	test   %esi,%esi
   5fb54:	je     5f1c9 <_IO_vfscanf+0x2ca9>
   5fb5a:	mov    -0x670(%rbp),%rax
   5fb61:	sub    %rax,%rbx
   5fb64:	test   %rbx,%rbx
   5fb67:	jle    6387c <_IO_vfscanf+0x735c>
   5fb6d:	mov    -0x620(%rbp),%rdi
   5fb74:	movzbl (%rax),%esi
   5fb77:	cmp    %sil,(%rdi)
   5fb7a:	jne    6366f <_IO_vfscanf+0x714f>
   5fb80:	mov    %rdi,%rsi
   5fb83:	mov    %rdi,%rdx
   5fb86:	mov    %rax,%rdi
   5fb89:	jmp    5fb97 <_IO_vfscanf+0x3677>
   5fb8b:	movzbl (%rdi,%rax,1),%eax
   5fb8f:	cmp    %al,(%rsi)
   5fb91:	jne    5f1d9 <_IO_vfscanf+0x2cb9>
   5fb97:	add    $0x1,%rsi
   5fb9b:	mov    %rsi,%rax
   5fb9e:	sub    %rdx,%rax
   5fba1:	cmp    %rbx,%rax
   5fba4:	jl     5fb8b <_IO_vfscanf+0x366b>
   5fba6:	cmp    %rbx,%rax
   5fba9:	jne    5f1d0 <_IO_vfscanf+0x2cb0>
   5fbaf:	movzbl (%rsi),%eax
   5fbb2:	cmp    %r12d,%eax
   5fbb5:	jne    5f1d9 <_IO_vfscanf+0x2cb9>
   5fbbb:	cmpb   $0x0,0x1(%rsi)
   5fbbf:	lea    0x1(%rsi),%rax
   5fbc3:	je     5f1e2 <_IO_vfscanf+0x2cc2>
   5fbc9:	test   %ecx,%ecx
   5fbcb:	je     6213d <_IO_vfscanf+0x5c1d>
   5fbd1:	mov    %rax,%rbx
   5fbd4:	jmp    5fc0a <_IO_vfscanf+0x36ea>
   5fbd6:	lea    0x1(%rax),%rdx
   5fbda:	mov    %rdx,0x8(%r13)
   5fbde:	movzbl (%rax),%eax
   5fbe1:	movzbl (%rbx),%r12d
   5fbe5:	add    $0x1,%r14
   5fbe9:	sub    $0x1,%ecx
   5fbec:	cmp    %eax,%r12d
   5fbef:	jne    6369a <_IO_vfscanf+0x717a>
   5fbf5:	add    $0x1,%rbx
   5fbf9:	cmpb   $0x0,(%rbx)
   5fbfc:	je     5f1e2 <_IO_vfscanf+0x2cc2>
   5fc02:	test   %ecx,%ecx
   5fc04:	je     6213d <_IO_vfscanf+0x5c1d>
   5fc0a:	mov    0x8(%r13),%rax
   5fc0e:	cmp    0x10(%r13),%rax
   5fc12:	jb     5fbd6 <_IO_vfscanf+0x36b6>
   5fc14:	mov    %r13,%rdi
   5fc17:	mov    %ecx,-0x6c0(%rbp)
   5fc1d:	callq  7d720 <__uflow>
   5fc22:	cmp    $0xffffffff,%eax
   5fc25:	mov    %eax,%r12d
   5fc28:	mov    -0x6c0(%rbp),%ecx
   5fc2e:	jne    5fbe1 <_IO_vfscanf+0x36c1>
   5fc30:	mov    0x360231(%rip),%rax        # 3bfe68 <_DYNAMIC+0x308>
   5fc37:	mov    %rbx,%rsi
   5fc3a:	mov    %fs:(%rax),%eax
   5fc3d:	mov    %eax,-0x5e4(%rbp)
   5fc43:	jmpq   5f1d9 <_IO_vfscanf+0x2cb9>
   5fc48:	mov    -0x650(%rbp),%rsi
   5fc4f:	mov    -0x630(%rbp),%rdi
   5fc56:	mov    -0x638(%rbp),%r8d
   5fc5d:	mov    (%rsi),%rax
   5fc60:	mov    %rax,(%rdi)
   5fc63:	mov    0x8(%rsi),%rdx
   5fc67:	mov    %rdx,0x8(%rdi)
   5fc6b:	mov    0x10(%rsi),%rcx
   5fc6f:	xor    %esi,%esi
   5fc71:	mov    %rcx,0x10(%rdi)
   5fc75:	mov    %eax,%ecx
   5fc77:	xor    %edi,%edi
   5fc79:	sub    $0x1,%r8d
   5fc7d:	je     63766 <_IO_vfscanf+0x7246>
   5fc83:	cmp    $0x2f,%ecx
   5fc86:	ja     63758 <_IO_vfscanf+0x7238>
   5fc8c:	add    $0x8,%ecx
   5fc8f:	mov    $0x1,%edi
   5fc94:	jmp    5fc79 <_IO_vfscanf+0x3759>
   5fc96:	nopw   %cs:0x0(%rax,%rax,1)
   5fca0:	mov    -0x650(%rbp),%rsi
   5fca7:	mov    -0x630(%rbp),%rdi
   5fcae:	mov    -0x638(%rbp),%r8d
   5fcb5:	mov    (%rsi),%rax
   5fcb8:	mov    %rax,(%rdi)
   5fcbb:	mov    0x8(%rsi),%rdx
   5fcbf:	mov    %rdx,0x8(%rdi)
   5fcc3:	mov    0x10(%rsi),%rcx
   5fcc7:	xor    %esi,%esi
   5fcc9:	mov    %rcx,0x10(%rdi)
   5fccd:	mov    %eax,%ecx
   5fccf:	xor    %edi,%edi
   5fcd1:	sub    $0x1,%r8d
   5fcd5:	je     63231 <_IO_vfscanf+0x6d11>
   5fcdb:	cmp    $0x2f,%ecx
   5fcde:	ja     63223 <_IO_vfscanf+0x6d03>
   5fce4:	add    $0x8,%ecx
   5fce7:	mov    $0x1,%edi
   5fcec:	jmp    5fcd1 <_IO_vfscanf+0x37b1>
   5fcee:	xchg   %ax,%ax
   5fcf0:	mov    -0x450(%rbp),%rax
   5fcf7:	cmp    -0x448(%rbp),%rax
   5fcfe:	je     636bc <_IO_vfscanf+0x719c>
   5fd04:	lea    0x1(%rax),%rdx
   5fd08:	mov    %rdx,-0x450(%rbp)
   5fd0f:	mov    %r10b,(%rax)
   5fd12:	test   %r12d,%r12d
   5fd15:	je     61d13 <_IO_vfscanf+0x57f3>
   5fd1b:	mov    0x8(%r13),%rax
   5fd1f:	cmp    0x10(%r13),%rax
   5fd23:	jae    6360d <_IO_vfscanf+0x70ed>
   5fd29:	lea    0x1(%rax),%rdx
   5fd2d:	mov    %rdx,0x8(%r13)
   5fd31:	movzbl (%rax),%eax
   5fd34:	mov    -0x5f8(%rbp),%rsi
   5fd3b:	movzbl %al,%edx
   5fd3e:	mov    0x70(%rsi),%rcx
   5fd42:	cmpl   $0x6e,(%rcx,%rdx,4)
   5fd46:	jne    61d05 <_IO_vfscanf+0x57e5>
   5fd4c:	xor    %edx,%edx
   5fd4e:	test   %r12d,%r12d
   5fd51:	setg   %dl
   5fd54:	sub    %edx,%r12d
   5fd57:	mov    -0x450(%rbp),%rdx
   5fd5e:	cmp    -0x448(%rbp),%rdx
   5fd65:	je     63801 <_IO_vfscanf+0x72e1>
   5fd6b:	lea    0x1(%rdx),%rcx
   5fd6f:	mov    %rcx,-0x450(%rbp)
   5fd76:	mov    %al,(%rdx)
   5fd78:	test   %r12d,%r12d
   5fd7b:	je     637f3 <_IO_vfscanf+0x72d3>
   5fd81:	mov    0x8(%r13),%rax
   5fd85:	cmp    0x10(%r13),%rax
   5fd89:	jae    61aef <_IO_vfscanf+0x55cf>
   5fd8f:	lea    0x1(%rax),%rdx
   5fd93:	lea    0x2(%r14),%rbx
   5fd97:	mov    %rdx,0x8(%r13)
   5fd9b:	movzbl (%rax),%r10d
   5fd9f:	mov    -0x5f8(%rbp),%rdi
   5fda6:	movzbl %r10b,%eax
   5fdaa:	mov    0x70(%rdi),%rdx
   5fdae:	cmpl   $0x66,(%rdx,%rax,4)
   5fdb2:	jne    63815 <_IO_vfscanf+0x72f5>
   5fdb8:	xor    %eax,%eax
   5fdba:	test   %r12d,%r12d
   5fdbd:	setg   %al
   5fdc0:	sub    %eax,%r12d
   5fdc3:	mov    -0x450(%rbp),%rax
   5fdca:	cmp    -0x448(%rbp),%rax
   5fdd1:	je     63d1b <_IO_vfscanf+0x77fb>
   5fdd7:	lea    0x1(%rax),%rdx
   5fddb:	mov    %rdx,-0x450(%rbp)
   5fde2:	mov    %r10b,(%rax)
   5fde5:	test   %r12d,%r12d
   5fde8:	je     61432 <_IO_vfscanf+0x4f12>
   5fdee:	mov    0x8(%r13),%rax
   5fdf2:	cmp    0x10(%r13),%rax
   5fdf6:	jae    6140e <_IO_vfscanf+0x4eee>
   5fdfc:	lea    0x1(%rax),%rdx
   5fe00:	mov    %rdx,0x8(%r13)
   5fe04:	movzbl (%rax),%r10d
   5fe08:	mov    -0x5f8(%rbp),%rdi
   5fe0f:	movzbl %r10b,%eax
   5fe13:	mov    0x70(%rdi),%rdx
   5fe17:	cmpl   $0x69,(%rdx,%rax,4)
   5fe1b:	je     62aab <_IO_vfscanf+0x658b>
   5fe21:	movzbl %r10b,%esi
   5fe25:	mov    %r13,%rdi
   5fe28:	mov    %r10d,-0x600(%rbp)
   5fe2f:	mov    %rbx,%r14
   5fe32:	callq  7e5a0 <_IO_sputbackc>
   5fe37:	mov    -0x450(%rbp),%rax
   5fe3e:	mov    -0x600(%rbp),%r10d
   5fe45:	jmpq   5eb27 <_IO_vfscanf+0x2607>
   5fe4a:	nopw   0x0(%rax,%rax,1)
   5fe50:	mov    %r13,%rdi
   5fe53:	callq  7d720 <__uflow>
   5fe58:	cmp    $0xffffffff,%eax
   5fe5b:	jne    5fb2e <_IO_vfscanf+0x360e>
   5fe61:	mov    %r12,%r15
   5fe64:	mov    0x35fffd(%rip),%rax        # 3bfe68 <_DYNAMIC+0x308>
   5fe6b:	mov    -0x5ec(%rbp),%r12d
   5fe72:	mov    $0xffffffff,%r10d
   5fe78:	mov    %fs:(%rax),%eax
   5fe7b:	test   %r12d,%r12d
   5fe7e:	mov    %eax,-0x5e4(%rbp)
   5fe84:	je     5febc <_IO_vfscanf+0x399c>
   5fe86:	mov    -0x608(%rbp),%r12
   5fe8d:	mov    %rbx,%rsi
   5fe90:	mov    (%r12),%rdi
   5fe94:	sub    %rdi,%rsi
   5fe97:	cmp    -0x658(%rbp),%rsi
   5fe9e:	je     5febc <_IO_vfscanf+0x399c>
   5fea0:	mov    %r10d,-0x5ec(%rbp)
   5fea7:	callq  1f990 <*ABS*+0x911b0@plt+0x10>
   5feac:	test   %rax,%rax
   5feaf:	mov    -0x5ec(%rbp),%r10d
   5feb6:	je     5febc <_IO_vfscanf+0x399c>
   5feb8:	mov    %rax,(%r12)
   5febc:	mov    %rbx,-0x668(%rbp)
   5fec3:	addl   $0x1,-0x5e8(%rbp)
   5feca:	movl   $0x0,-0x600(%rbp)
   5fed4:	movq   $0x0,-0x608(%rbp)
   5fedf:	jmpq   5c832 <_IO_vfscanf+0x312>
   5fee4:	mov    -0x650(%rbp),%rsi
   5feeb:	mov    -0x630(%rbp),%rdi
   5fef2:	mov    -0x638(%rbp),%r8d
   5fef9:	mov    (%rsi),%rax
   5fefc:	mov    %rax,(%rdi)
   5feff:	mov    0x8(%rsi),%rdx
   5ff03:	mov    %rdx,0x8(%rdi)
   5ff07:	mov    0x10(%rsi),%rcx
   5ff0b:	xor    %esi,%esi
   5ff0d:	mov    %rcx,0x10(%rdi)
   5ff11:	mov    %eax,%ecx
   5ff13:	xor    %edi,%edi
   5ff15:	sub    $0x1,%r8d
   5ff19:	je     630da <_IO_vfscanf+0x6bba>
   5ff1f:	cmp    $0x2f,%ecx
   5ff22:	ja     630cc <_IO_vfscanf+0x6bac>
   5ff28:	add    $0x8,%ecx
   5ff2b:	mov    $0x1,%edi
   5ff30:	jmp    5ff15 <_IO_vfscanf+0x39f5>
   5ff32:	nopw   0x0(%rax,%rax,1)
   5ff38:	test   %rbx,%rbx
   5ff3b:	je     5f96f <_IO_vfscanf+0x344f>
   5ff41:	mov    -0x440(%rbp),%rax
   5ff48:	jmpq   5e9fd <_IO_vfscanf+0x24dd>
   5ff4d:	mov    %r13,%rdi
   5ff50:	callq  7d720 <__uflow>
   5ff55:	cmp    $0xffffffff,%eax
   5ff58:	mov    %eax,%r10d
   5ff5b:	jne    5d861 <_IO_vfscanf+0x1341>
   5ff61:	mov    0x35ff00(%rip),%rax        # 3bfe68 <_DYNAMIC+0x308>
   5ff68:	mov    %fs:(%rax),%eax
   5ff6b:	mov    %eax,-0x5e4(%rbp)
   5ff71:	jmpq   5d865 <_IO_vfscanf+0x1345>
   5ff76:	mov    -0x650(%rbp),%rsi
   5ff7d:	mov    -0x630(%rbp),%rdi
   5ff84:	mov    -0x638(%rbp),%r8d
   5ff8b:	mov    (%rsi),%rax
   5ff8e:	mov    %rax,(%rdi)
   5ff91:	mov    0x8(%rsi),%rdx
   5ff95:	mov    %rdx,0x8(%rdi)
   5ff99:	mov    0x10(%rsi),%rcx
   5ff9d:	xor    %esi,%esi
   5ff9f:	mov    %rcx,0x10(%rdi)
   5ffa3:	mov    %eax,%ecx
   5ffa5:	xor    %edi,%edi
   5ffa7:	sub    $0x1,%r8d
   5ffab:	je     63b56 <_IO_vfscanf+0x7636>
   5ffb1:	cmp    $0x2f,%ecx
   5ffb4:	ja     63b48 <_IO_vfscanf+0x7628>
   5ffba:	add    $0x8,%ecx
   5ffbd:	mov    $0x1,%edi
   5ffc2:	jmp    5ffa7 <_IO_vfscanf+0x3a87>
   5ffc4:	nopl   0x0(%rax)
   5ffc8:	mov    %r13,-0x668(%rbp)
   5ffcf:	mov    -0x688(%rbp),%r15
   5ffd6:	mov    %rbx,%r13
   5ffd9:	mov    %r12d,%r10d
   5ffdc:	mov    %r14,%rbx
   5ffdf:	mov    -0x690(%rbp),%r14
   5ffe6:	jmpq   5f4bb <_IO_vfscanf+0x2f9b>
   5ffeb:	movzbl %r10b,%esi
   5ffef:	mov    %r13,%rdi
   5fff2:	mov    %r10d,-0x5ec(%rbp)
   5fff9:	sub    $0x1,%rbx
   5fffd:	callq  7e5a0 <_IO_sputbackc>
   60002:	mov    -0x5ec(%rbp),%r10d
   60009:	jmpq   5eeee <_IO_vfscanf+0x29ce>
   6000e:	mov    -0x658(%rbp),%rax
   60015:	mov    %r12d,-0x668(%rbp)
   6001c:	lea    0x1(%rax),%r13
   60020:	lea    (%rax,%rax,1),%r9
   60024:	mov    %r13,%r12
   60027:	mov    %rbx,%r13
   6002a:	mov    %r9,%rbx
   6002d:	jmp    60046 <_IO_vfscanf+0x3b26>
   6002f:	nop
   60030:	cmp    %r12,%rbx
   60033:	jbe    61794 <_IO_vfscanf+0x5274>
   60039:	mov    -0x608(%rbp),%rax
   60040:	mov    %r12,%rbx
   60043:	mov    (%rax),%rdi
   60046:	mov    %rbx,%rsi
   60049:	callq  1f990 <*ABS*+0x911b0@plt+0x10>
   6004e:	test   %rax,%rax
   60051:	je     60030 <_IO_vfscanf+0x3b10>
   60053:	mov    %rbx,%r9
   60056:	mov    -0x608(%rbp),%rdi
   6005d:	mov    %r13,%rbx
   60060:	mov    -0x658(%rbp),%r13
   60067:	mov    -0x668(%rbp),%r12d
   6006e:	mov    %r9,-0x658(%rbp)
   60075:	mov    %rax,(%rdi)
   60078:	add    %rax,%r13
   6007b:	jmpq   5f3ff <_IO_vfscanf+0x2edf>
   60080:	lea    0x1299c6(%rip),%rdi        # 189a4d <null+0xf>
   60087:	mov    %r10d,-0x628(%rbp)
   6008e:	callq  10b870 <wctrans>
   60093:	mov    -0x648(%rbp),%rsi
   6009a:	mov    %rax,-0x6a0(%rbp)
   600a1:	mov    -0x628(%rbp),%r10d
   600a8:	mov    0xd8(%rsi),%edi
   600ae:	mov    %edi,-0x600(%rbp)
   600b4:	sub    $0x1,%edi
   600b7:	test   %rax,%rax
   600ba:	mov    %edi,-0x6b0(%rbp)
   600c0:	jne    62d4c <_IO_vfscanf+0x682c>
   600c6:	mov    -0x5ec(%rbp),%eax
   600cc:	mov    %r12d,-0x6a4(%rbp)
   600d3:	mov    %r13,%r12
   600d6:	movl   $0x0,-0x698(%rbp)
   600e0:	mov    %r15,-0x6b8(%rbp)
   600e7:	mov    %r10d,%r13d
   600ea:	and    $0x80,%eax
   600ef:	mov    %eax,-0x6c0(%rbp)
   600f5:	mov    -0x610(%rbp),%rax
   600fc:	add    $0x10,%rax
   60100:	mov    %rax,-0x6c8(%rbp)
   60107:	cmp    $0xffffffff,%r13d
   6010b:	je     60b21 <_IO_vfscanf+0x4601>
   60111:	mov    -0x6a4(%rbp),%r8d
   60118:	test   %r8d,%r8d
   6011b:	je     60b21 <_IO_vfscanf+0x4601>
   60121:	mov    -0x6a4(%rbp),%edi
   60127:	mov    $0x7fffffff,%eax
   6012c:	test   %edi,%edi
   6012e:	cmovg  %edi,%eax
   60131:	xor    %ebx,%ebx
   60133:	mov    %eax,-0x688(%rbp)
   60139:	lea    -0x570(%rbp),%rax
   60140:	mov    %rax,-0x628(%rbp)
   60147:	nopw   0x0(%rax,%rax,1)
   60150:	cmpq   $0x0,-0x6a0(%rbp)
   60158:	mov    %ebx,-0x678(%rbp)
   6015e:	jne    606cf <_IO_vfscanf+0x41af>
   60164:	mov    -0x648(%rbp),%rax
   6016b:	mov    0xe0(%rax,%rbx,8),%rdx
   60173:	mov    -0x698(%rbp),%esi
   60179:	mov    -0x628(%rbp),%rax
   60180:	test   %esi,%esi
   60182:	mov    %rdx,(%rax,%rbx,8)
   60186:	je     601d1 <_IO_vfscanf+0x3cb1>
   60188:	xor    %r15d,%r15d
   6018b:	mov    %r14,-0x600(%rbp)
   60192:	mov    %r12,-0x690(%rbp)
   60199:	mov    %rdx,%rdi
   6019c:	mov    %r15d,%r12d
   6019f:	mov    %esi,%r14d
   601a2:	mov    %rax,%r15
   601a5:	nopl   (%rax)
   601a8:	xor    %esi,%esi
   601aa:	add    $0x1,%r12d
   601ae:	callq  97340 <__rawmemchr>
   601b3:	lea    0x1(%rax),%rdi
   601b7:	cmp    %r12d,%r14d
   601ba:	mov    %rdi,(%r15,%rbx,8)
   601be:	jne    601a8 <_IO_vfscanf+0x3c88>
   601c0:	mov    -0x600(%rbp),%r14
   601c7:	mov    -0x690(%rbp),%r12
   601ce:	mov    %rdi,%rdx
   601d1:	movzbl (%rdx),%ecx
   601d4:	cmp    %r13d,%ecx
   601d7:	jne    6075b <_IO_vfscanf+0x423b>
   601dd:	cmpb   $0x0,0x1(%rdx)
   601e1:	lea    0x1(%rdx),%rcx
   601e5:	mov    -0x688(%rbp),%r8d
   601ec:	je     6076a <_IO_vfscanf+0x424a>
   601f2:	mov    %rcx,%r15
   601f5:	jmp    6023b <_IO_vfscanf+0x3d1b>
   601f7:	nopw   0x0(%rax,%rax,1)
   60200:	lea    0x1(%rax),%rcx
   60204:	mov    %rcx,0x8(%r12)
   60209:	movzbl (%rax),%r13d
   6020d:	movzbl (%r15),%ecx
   60211:	add    $0x1,%r14
   60215:	sub    $0x1,%r8d
   60219:	cmp    %r13d,%ecx
   6021c:	mov    %ecx,%eax
   6021e:	jne    606c7 <_IO_vfscanf+0x41a7>
   60224:	add    $0x1,%r15
   60228:	cmpb   $0x0,(%r15)
   6022c:	je     6076a <_IO_vfscanf+0x424a>
   60232:	test   %r8d,%r8d
   60235:	je     6068a <_IO_vfscanf+0x416a>
   6023b:	mov    0x8(%r12),%rax
   60240:	cmp    0x10(%r12),%rax
   60245:	jb     60200 <_IO_vfscanf+0x3ce0>
   60247:	mov    %r12,%rdi
   6024a:	mov    %rdx,-0x690(%rbp)
   60251:	mov    %r8d,-0x600(%rbp)
   60258:	callq  7d720 <__uflow>
   6025d:	cmp    $0xffffffff,%eax
   60260:	mov    %eax,%r13d
   60263:	mov    -0x600(%rbp),%r8d
   6026a:	mov    -0x690(%rbp),%rdx
   60271:	jne    6020d <_IO_vfscanf+0x3ced>
   60273:	mov    0x35fbee(%rip),%rax        # 3bfe68 <_DYNAMIC+0x308>
   6027a:	mov    %r15,%rcx
   6027d:	mov    %fs:(%rax),%eax
   60280:	mov    %eax,-0x5e4(%rbp)
   60286:	movzbl (%r15),%eax
   6028a:	test   %al,%al
   6028c:	je     6076a <_IO_vfscanf+0x424a>
   60292:	cmp    %rdx,%rcx
   60295:	jbe    602f9 <_IO_vfscanf+0x3dd9>
   60297:	cmp    $0xffffffff,%r13d
   6029b:	jne    60696 <_IO_vfscanf+0x4176>
   602a1:	lea    -0x1(%rcx),%r15
   602a5:	cmp    %r15,%rdx
   602a8:	jae    602f5 <_IO_vfscanf+0x3dd5>
   602aa:	mov    %rbx,-0x678(%rbp)
   602b1:	mov    %rcx,-0x600(%rbp)
   602b8:	mov    %r15,%rbx
   602bb:	mov    %rdx,%r13
   602be:	xchg   %ax,%ax
   602c0:	movzbl (%rbx),%esi
   602c3:	mov    %r12,%rdi
   602c6:	sub    $0x1,%rbx
   602ca:	callq  7e5a0 <_IO_sputbackc>
   602cf:	cmp    %r13,%rbx
   602d2:	jne    602c0 <_IO_vfscanf+0x3da0>
   602d4:	mov    -0x600(%rbp),%rcx
   602db:	mov    %r13,%rax
   602de:	mov    -0x678(%rbp),%rbx
   602e5:	mov    %r13,%rdx
   602e8:	sub    %rcx,%rax
   602eb:	add    $0x1,%rax
   602ef:	add    %rax,%r15
   602f2:	add    %rax,%r14
   602f5:	movzbl (%r15),%r13d
   602f9:	xor    %esi,%esi
   602fb:	mov    %rdx,%rdi
   602fe:	callq  97340 <__rawmemchr>
   60303:	mov    -0x628(%rbp),%rsi
   6030a:	add    $0x1,%rax
   6030e:	mov    %rax,(%rsi,%rbx,8)
   60312:	add    $0x1,%rbx
   60316:	cmp    $0xa,%rbx
   6031a:	jne    60150 <_IO_vfscanf+0x3c30>
   60320:	mov    -0x698(%rbp),%eax
   60326:	add    $0x1,%eax
   60329:	cmp    %eax,-0x6b0(%rbp)
   6032f:	mov    %eax,-0x690(%rbp)
   60335:	jl     604ab <_IO_vfscanf+0x3f8b>
   6033b:	nopl   0x0(%rax,%rax,1)
   60340:	mov    -0x628(%rbp),%rdi
   60347:	movq   $0x0,-0x600(%rbp)
   60352:	nopw   0x0(%rax,%rax,1)
   60358:	mov    -0x600(%rbp),%rax
   6035f:	mov    (%rdi,%rax,8),%rbx
   60363:	mov    %eax,-0x678(%rbp)
   60369:	movzbl (%rbx),%edx
   6036c:	cmp    %r13d,%edx
   6036f:	jne    606df <_IO_vfscanf+0x41bf>
   60375:	cmpb   $0x0,0x1(%rbx)
   60379:	lea    0x1(%rbx),%r15
   6037d:	mov    -0x688(%rbp),%r8d
   60384:	je     605fb <_IO_vfscanf+0x40db>
   6038a:	mov    %r8d,%r13d
   6038d:	jmp    603c7 <_IO_vfscanf+0x3ea7>
   6038f:	nop
   60390:	lea    0x1(%rax),%rdx
   60394:	mov    %rdx,0x8(%r12)
   60399:	movzbl (%rax),%eax
   6039c:	movzbl (%r15),%ecx
   603a0:	add    $0x1,%r14
   603a4:	sub    $0x1,%r13d
   603a8:	cmp    %eax,%ecx
   603aa:	jne    605e8 <_IO_vfscanf+0x40c8>
   603b0:	add    $0x1,%r15
   603b4:	cmpb   $0x0,(%r15)
   603b8:	je     605f8 <_IO_vfscanf+0x40d8>
   603be:	test   %r13d,%r13d
   603c1:	je     605c0 <_IO_vfscanf+0x40a0>
   603c7:	mov    0x8(%r12),%rax
   603cc:	cmp    0x10(%r12),%rax
   603d1:	jb     60390 <_IO_vfscanf+0x3e70>
   603d3:	mov    %r12,%rdi
   603d6:	callq  7d720 <__uflow>
   603db:	cmp    $0xffffffff,%eax
   603de:	jne    6039c <_IO_vfscanf+0x3e7c>
   603e0:	mov    %r13d,%r8d
   603e3:	mov    %eax,%r13d
   603e6:	mov    0x35fa7b(%rip),%rax        # 3bfe68 <_DYNAMIC+0x308>
   603ed:	mov    %fs:(%rax),%eax
   603f0:	mov    %eax,-0x5e4(%rbp)
   603f6:	movzbl (%r15),%eax
   603fa:	test   %al,%al
   603fc:	je     605fb <_IO_vfscanf+0x40db>
   60402:	cmp    %r15,%rbx
   60405:	jae    6045d <_IO_vfscanf+0x3f3d>
   60407:	cmp    $0xffffffff,%r13d
   6040b:	jne    605cc <_IO_vfscanf+0x40ac>
   60411:	lea    -0x1(%r15),%rax
   60415:	cmp    %rbx,%rax
   60418:	mov    %rax,-0x678(%rbp)
   6041f:	jbe    60459 <_IO_vfscanf+0x3f39>
   60421:	mov    %rax,%r13
   60424:	nopl   0x0(%rax)
   60428:	movzbl 0x0(%r13),%esi
   6042d:	mov    %r12,%rdi
   60430:	sub    $0x1,%r13
   60434:	callq  7e5a0 <_IO_sputbackc>
   60439:	cmp    %r13,%rbx
   6043c:	jne    60428 <_IO_vfscanf+0x3f08>
   6043e:	mov    %rbx,%rax
   60441:	sub    %r15,%rax
   60444:	add    $0x1,%rax
   60448:	add    %rax,-0x678(%rbp)
   6044f:	add    %rax,%r14
   60452:	mov    -0x678(%rbp),%rax
   60459:	movzbl (%rax),%r13d
   6045d:	xor    %esi,%esi
   6045f:	mov    %rbx,%rdi
   60462:	callq  97340 <__rawmemchr>
   60467:	mov    -0x600(%rbp),%rsi
   6046e:	mov    -0x628(%rbp),%rdi
   60475:	add    $0x1,%rax
   60479:	mov    %rax,(%rdi,%rsi,8)
   6047d:	add    $0x1,%rsi
   60481:	cmp    $0xa,%rsi
   60485:	mov    %rsi,-0x600(%rbp)
   6048c:	jne    60358 <_IO_vfscanf+0x3e38>
   60492:	addl   $0x1,-0x690(%rbp)
   60499:	mov    -0x690(%rbp),%eax
   6049f:	cmp    %eax,-0x6b0(%rbp)
   604a5:	jge    60340 <_IO_vfscanf+0x3e20>
   604ab:	mov    -0x6c0(%rbp),%edi
   604b1:	test   %edi,%edi
   604b3:	je     60b21 <_IO_vfscanf+0x4601>
   604b9:	mov    -0x6a4(%rbp),%eax
   604bf:	mov    -0x620(%rbp),%r15
   604c6:	mov    $0x7fffffff,%r8d
   604cc:	test   %eax,%eax
   604ce:	cmovg  %eax,%r8d
   604d2:	movzbl (%r15),%eax
   604d6:	cmp    %eax,%r13d
   604d9:	jne    62a9f <_IO_vfscanf+0x657f>
   604df:	mov    %r8d,%ebx
   604e2:	jmp    6053d <_IO_vfscanf+0x401d>
   604e4:	nopl   0x0(%rax)
   604e8:	lea    0x1(%rax),%rcx
   604ec:	mov    %rcx,-0x450(%rbp)
   604f3:	mov    %r13b,(%rax)
   604f6:	add    $0x1,%r15
   604fa:	cmpb   $0x0,(%r15)
   604fe:	je     60852 <_IO_vfscanf+0x4332>
   60504:	test   %ebx,%ebx
   60506:	je     60808 <_IO_vfscanf+0x42e8>
   6050c:	mov    0x8(%r12),%rax
   60511:	cmp    0x10(%r12),%rax
   60516:	jae    606f8 <_IO_vfscanf+0x41d8>
   6051c:	lea    0x1(%rax),%rdx
   60520:	mov    %rdx,0x8(%r12)
   60525:	movzbl (%rax),%r13d
   60529:	movzbl (%r15),%eax
   6052d:	add    $0x1,%r14
   60531:	sub    $0x1,%ebx
   60534:	cmp    %r13d,%eax
   60537:	jne    609a2 <_IO_vfscanf+0x4482>
   6053d:	mov    -0x450(%rbp),%rax
   60544:	mov    -0x448(%rbp),%rcx
   6054b:	mov    %r13d,%edx
   6054e:	cmp    %rax,%rcx
   60551:	jne    604e8 <_IO_vfscanf+0x3fc8>
   60553:	test   %rcx,%rcx
   60556:	mov    %r13b,-0x628(%rbp)
   6055d:	je     61239 <_IO_vfscanf+0x4d19>
   60563:	sub    -0x440(%rbp),%rcx
   6056a:	mov    -0x6c8(%rbp),%rdi
   60571:	mov    %rcx,-0x600(%rbp)
   60578:	callq  8afb0 <__libc_scratch_buffer_grow_preserve>
   6057d:	test   %al,%al
   6057f:	movzbl -0x628(%rbp),%edx
   60586:	je     61229 <_IO_vfscanf+0x4d09>
   6058c:	mov    -0x440(%rbp),%rcx
   60593:	mov    %rcx,%rax
   60596:	add    -0x600(%rbp),%rcx
   6059d:	add    -0x438(%rbp),%rax
   605a4:	mov    %rax,-0x448(%rbp)
   605ab:	lea    0x1(%rcx),%rax
   605af:	mov    %rax,-0x450(%rbp)
   605b6:	mov    %r13b,(%rcx)
   605b9:	jmpq   604f6 <_IO_vfscanf+0x3fd6>
   605be:	xchg   %ax,%ax
   605c0:	cmp    %r15,%rbx
   605c3:	mov    %eax,%r13d
   605c6:	jae    6045d <_IO_vfscanf+0x3f3d>
   605cc:	movzbl %r13b,%esi
   605d0:	mov    %r12,%rdi
   605d3:	sub    $0x1,%r14
   605d7:	callq  7e5a0 <_IO_sputbackc>
   605dc:	jmpq   60411 <_IO_vfscanf+0x3ef1>
   605e1:	nopl   0x0(%rax)
   605e8:	mov    %r13d,%r8d
   605eb:	mov    %eax,%r13d
   605ee:	mov    %ecx,%eax
   605f0:	jmpq   603fa <_IO_vfscanf+0x3eda>
   605f5:	nopl   (%rax)
   605f8:	mov    %r13d,%r8d
   605fb:	mov    -0x6a4(%rbp),%eax
   60601:	test   %eax,%eax
   60603:	cmovle %eax,%r8d
   60607:	mov    -0x678(%rbp),%r13d
   6060e:	mov    -0x690(%rbp),%eax
   60614:	mov    -0x450(%rbp),%rbx
   6061b:	add    $0x30,%r13d
   6061f:	mov    %eax,-0x6b0(%rbp)
   60625:	mov    %eax,-0x698(%rbp)
   6062b:	mov    %r13d,%edx
   6062e:	cmp    %rbx,-0x448(%rbp)
   60635:	je     6079c <_IO_vfscanf+0x427c>
   6063b:	lea    0x1(%rbx),%rax
   6063f:	mov    %rax,-0x450(%rbp)
   60646:	mov    %dl,(%rbx)
   60648:	xor    %eax,%eax
   6064a:	test   %r8d,%r8d
   6064d:	setg   %al
   60650:	sub    %eax,%r8d
   60653:	cmp    $0xffffffff,%r13d
   60657:	mov    %r8d,-0x6a4(%rbp)
   6065e:	je     60787 <_IO_vfscanf+0x4267>
   60664:	mov    0x8(%r12),%rax
   60669:	cmp    0x10(%r12),%rax
   6066e:	jae    609aa <_IO_vfscanf+0x448a>
   60674:	lea    0x1(%rax),%rcx
   60678:	mov    %rcx,0x8(%r12)
   6067d:	movzbl (%rax),%r13d
   60681:	add    $0x1,%r14
   60685:	jmpq   60107 <_IO_vfscanf+0x3be7>
   6068a:	cmp    %rdx,%r15
   6068d:	mov    %r15,%rcx
   60690:	jbe    602f9 <_IO_vfscanf+0x3dd9>
   60696:	movzbl %r13b,%esi
   6069a:	mov    %r12,%rdi
   6069d:	mov    %rcx,-0x678(%rbp)
   606a4:	mov    %rdx,-0x600(%rbp)
   606ab:	sub    $0x1,%r14
   606af:	callq  7e5a0 <_IO_sputbackc>
   606b4:	mov    -0x678(%rbp),%rcx
   606bb:	mov    -0x600(%rbp),%rdx
   606c2:	jmpq   602a1 <_IO_vfscanf+0x3d81>
   606c7:	mov    %r15,%rcx
   606ca:	jmpq   6028a <_IO_vfscanf+0x3d6a>
   606cf:	mov    -0x630(%rbp),%rax
   606d6:	mov    (%rax,%rbx,8),%rdx
   606da:	jmpq   60173 <_IO_vfscanf+0x3c53>
   606df:	test   %dl,%dl
   606e1:	jne    6045d <_IO_vfscanf+0x3f3d>
   606e7:	mov    -0x688(%rbp),%r8d
   606ee:	jmpq   605fb <_IO_vfscanf+0x40db>
   606f3:	nopl   0x0(%rax,%rax,1)
   606f8:	mov    %r12,%rdi
   606fb:	callq  7d720 <__uflow>
   60700:	cmp    $0xffffffff,%eax
   60703:	mov    %eax,%r13d
   60706:	jne    60529 <_IO_vfscanf+0x4009>
   6070c:	mov    0x35f755(%rip),%rax        # 3bfe68 <_DYNAMIC+0x308>
   60713:	mov    %ebx,%r8d
   60716:	mov    %fs:(%rax),%eax
   60719:	mov    %eax,-0x5e4(%rbp)
   6071f:	mov    -0x450(%rbp),%rax
   60726:	test   %rax,%rax
   60729:	mov    %rax,%rbx
   6072c:	je     60865 <_IO_vfscanf+0x4345>
   60732:	cmpb   $0x0,(%r15)
   60736:	jne    639e7 <_IO_vfscanf+0x74c7>
   6073c:	mov    %r13d,%edx
   6073f:	mov    -0x6a4(%rbp),%edi
   60745:	lea    -0x1(%rax),%rbx
   60749:	mov    %rbx,-0x450(%rbp)
   60750:	test   %edi,%edi
   60752:	cmovle %edi,%r8d
   60756:	jmpq   6062e <_IO_vfscanf+0x410e>
   6075b:	test   %cl,%cl
   6075d:	jne    602f9 <_IO_vfscanf+0x3dd9>
   60763:	mov    -0x688(%rbp),%r8d
   6076a:	mov    -0x698(%rbp),%eax
   60770:	mov    %eax,-0x690(%rbp)
   60776:	mov    -0x6a4(%rbp),%eax
   6077c:	test   %eax,%eax
   6077e:	cmovle %eax,%r8d
   60782:	jmpq   60607 <_IO_vfscanf+0x40e7>
   60787:	mov    0x35f6da(%rip),%rax        # 3bfe68 <_DYNAMIC+0x308>
   6078e:	mov    -0x5e4(%rbp),%esi
   60794:	mov    %esi,%fs:(%rax)
   60797:	jmpq   60107 <_IO_vfscanf+0x3be7>
   6079c:	test   %rbx,%rbx
   6079f:	mov    %dl,-0x628(%rbp)
   607a5:	je     60648 <_IO_vfscanf+0x4128>
   607ab:	mov    -0x6c8(%rbp),%rdi
   607b2:	mov    %r8d,-0x600(%rbp)
   607b9:	sub    -0x440(%rbp),%rbx
   607c0:	callq  8afb0 <__libc_scratch_buffer_grow_preserve>
   607c5:	test   %al,%al
   607c7:	mov    -0x600(%rbp),%r8d
   607ce:	movzbl -0x628(%rbp),%edx
   607d5:	je     63e2e <_IO_vfscanf+0x790e>
   607db:	mov    -0x440(%rbp),%rax
   607e2:	mov    %rax,%rcx
   607e5:	add    -0x438(%rbp),%rcx
   607ec:	add    %rax,%rbx
   607ef:	lea    0x1(%rbx),%rax
   607f3:	mov    %rax,-0x450(%rbp)
   607fa:	mov    %rcx,-0x448(%rbp)
   60801:	mov    %dl,(%rbx)
   60803:	jmpq   60648 <_IO_vfscanf+0x4128>
   60808:	mov    -0x450(%rbp),%rbx
   6080f:	mov    %r15,%rcx
   60812:	mov    %r13d,%r10d
   60815:	mov    -0x6b8(%rbp),%r15
   6081c:	mov    %r12,%r13
   6081f:	mov    -0x6a4(%rbp),%r12d
   60826:	test   %rbx,%rbx
   60829:	jne    639fe <_IO_vfscanf+0x74de>
   6082f:	mov    %r13,%r15
   60832:	mov    0x35f62f(%rip),%rax        # 3bfe68 <_DYNAMIC+0x308>
   60839:	xor    %r13d,%r13d
   6083c:	movl   $0xffffffff,-0x5e8(%rbp)
   60846:	movl   $0xc,%fs:(%rax)
   6084d:	jmpq   5c9b8 <_IO_vfscanf+0x498>
   60852:	mov    -0x450(%rbp),%rax
   60859:	mov    %ebx,%r8d
   6085c:	test   %rax,%rax
   6085f:	jne    6073f <_IO_vfscanf+0x421f>
   60865:	mov    %r12,%r15
   60868:	jmp    60832 <_IO_vfscanf+0x4312>
   6086a:	nopw   0x0(%rax,%rax,1)
   60870:	mov    -0x440(%rbp),%rdi
   60877:	mov    %ebx,%edx
   60879:	lea    -0x5c8(%rbp),%rsi
   60880:	and    $0x80,%edx
   60886:	mov    %r10d,-0x600(%rbp)
   6088d:	callq  3c1a0 <__strtof_internal>
   60892:	mov    %ebx,%edx
   60894:	mov    -0x600(%rbp),%r10d
   6089b:	and    $0x8,%edx
   6089e:	jne    5fa9c <_IO_vfscanf+0x357c>
   608a4:	mov    -0x440(%rbp),%rdx
   608ab:	mov    -0x5c8(%rbp),%rcx
   608b2:	cmp    %rdx,%rcx
   608b5:	je     6346f <_IO_vfscanf+0x6f4f>
   608bb:	mov    -0x638(%rbp),%eax
   608c1:	test   %eax,%eax
   608c3:	jne    61c50 <_IO_vfscanf+0x5730>
   608c9:	mov    -0x5a8(%rbp),%eax
   608cf:	cmp    $0x2f,%eax
   608d2:	ja     6382c <_IO_vfscanf+0x730c>
   608d8:	mov    %eax,%esi
   608da:	add    -0x598(%rbp),%rsi
   608e1:	add    $0x8,%eax
   608e4:	mov    %eax,-0x5a8(%rbp)
   608ea:	cmpb   $0x0,-0x6a0(%rbp)
   608f1:	mov    (%rsi),%rax
   608f4:	je     608fd <_IO_vfscanf+0x43dd>
   608f6:	xorps  0x130a83(%rip),%xmm0        # 191380 <othermask+0x40>
   608fd:	movss  %xmm0,(%rax)
   60901:	jmpq   5ebfe <_IO_vfscanf+0x26de>
   60906:	mov    -0x628(%rbp),%rdx
   6090d:	mov    -0x5e4(%rbp),%eax
   60913:	mov    %r13,%r15
   60916:	mov    %eax,%fs:(%rdx)
   60919:	mov    -0x5e8(%rbp),%r10d
   60920:	mov    $0x1,%r13d
   60926:	test   %r10d,%r10d
   60929:	jne    5c9b8 <_IO_vfscanf+0x498>
   6092f:	movl   $0xffffffff,-0x5e8(%rbp)
   60939:	jmpq   5c9b8 <_IO_vfscanf+0x498>
   6093e:	mov    0x35f523(%rip),%rax        # 3bfe68 <_DYNAMIC+0x308>
   60945:	mov    -0x5e4(%rbp),%esi
   6094b:	mov    %r13,%r15
   6094e:	mov    %esi,%fs:(%rax)
   60951:	mov    -0x5e8(%rbp),%ebx
   60957:	mov    $0x1,%r13d
   6095d:	test   %ebx,%ebx
   6095f:	jne    5c9b8 <_IO_vfscanf+0x498>
   60965:	movl   $0xffffffff,-0x5e8(%rbp)
   6096f:	jmpq   5c9b8 <_IO_vfscanf+0x498>
   60974:	lea    -0x2b(%r12),%eax
   60979:	and    $0xfffffffd,%eax
   6097c:	jne    5dcb9 <_IO_vfscanf+0x1799>
   60982:	cmp    -0x448(%rbp),%rbx
   60989:	je     63e3e <_IO_vfscanf+0x791e>
   6098f:	lea    0x1(%rbx),%rax
   60993:	mov    %rax,-0x450(%rbp)
   6099a:	mov    %r12b,(%rbx)
   6099d:	jmpq   5eaad <_IO_vfscanf+0x258d>
   609a2:	mov    %ebx,%r8d
   609a5:	jmpq   6071f <_IO_vfscanf+0x41ff>
   609aa:	mov    %r12,%rdi
   609ad:	callq  7d720 <__uflow>
   609b2:	cmp    $0xffffffff,%eax
   609b5:	mov    %eax,%r13d
   609b8:	jne    60681 <_IO_vfscanf+0x4161>
   609be:	mov    0x35f4a3(%rip),%rax        # 3bfe68 <_DYNAMIC+0x308>
   609c5:	mov    %fs:(%rax),%eax
   609c8:	mov    %eax,-0x5e4(%rbp)
   609ce:	jmpq   60107 <_IO_vfscanf+0x3be7>
   609d3:	mov    %r13,%rdi
   609d6:	callq  7d720 <__uflow>
   609db:	cmp    $0xffffffff,%eax
   609de:	mov    %eax,%r10d
   609e1:	jne    5d298 <_IO_vfscanf+0xd78>
   609e7:	mov    %r13,%r15
   609ea:	jmpq   5f319 <_IO_vfscanf+0x2df9>
   609ef:	sub    $0x120,%rsp
   609f6:	mov    $0x1,%ecx
   609fb:	lea    0xf(%rsp),%rdx
   60a00:	and    $0xfffffffffffffff0,%rdx
   60a04:	mov    %rdx,-0x660(%rbp)
   60a0b:	movq   $0x0,(%rdx)
   60a12:	mov    %rdi,0x8(%rdx)
   60a16:	mov    -0x660(%rbp),%rsi
   60a1d:	xor    %edx,%edx
   60a1f:	jmpq   5d069 <_IO_vfscanf+0xb49>
   60a24:	mov    %r13,%rdi
   60a27:	callq  7d720 <__uflow>
   60a2c:	cmp    $0xffffffff,%eax
   60a2f:	mov    %eax,%r10d
   60a32:	jne    5d0ae <_IO_vfscanf+0xb8e>
   60a38:	mov    %r13,%r15
   60a3b:	jmpq   5f2e1 <_IO_vfscanf+0x2dc1>
   60a40:	testl  $0x200,-0x5ec(%rbp)
   60a4a:	jne    614a8 <_IO_vfscanf+0x4f88>
   60a50:	mov    -0x638(%rbp),%edx
   60a56:	test   %edx,%edx
   60a58:	jne    61a60 <_IO_vfscanf+0x5540>
   60a5e:	mov    -0x5a8(%rbp),%ecx
   60a64:	cmp    $0x2f,%ecx
   60a67:	ja     63e76 <_IO_vfscanf+0x7956>
   60a6d:	mov    %ecx,%edx
   60a6f:	add    -0x598(%rbp),%rdx
   60a76:	add    $0x8,%ecx
   60a79:	mov    %ecx,-0x5a8(%rbp)
   60a7f:	mov    (%rdx),%rdx
   60a82:	mov    %eax,(%rdx)
   60a84:	jmpq   5da60 <_IO_vfscanf+0x1540>
   60a89:	mov    -0x638(%rbp),%edx
   60a8f:	test   %edx,%edx
   60a91:	jne    612a0 <_IO_vfscanf+0x4d80>
   60a97:	mov    -0x5a8(%rbp),%edx
   60a9d:	cmp    $0x2f,%edx
   60aa0:	ja     63aaa <_IO_vfscanf+0x758a>
   60aa6:	mov    %edx,%eax
   60aa8:	add    -0x598(%rbp),%rax
   60aaf:	add    $0x8,%edx
   60ab2:	mov    %edx,-0x5a8(%rbp)
   60ab8:	mov    (%rax),%rax
   60abb:	mov    %rax,-0x668(%rbp)
   60ac2:	cmpq   $0x0,-0x668(%rbp)
   60aca:	jne    5dfb6 <_IO_vfscanf+0x1a96>
   60ad0:	mov    %r13,%r15
   60ad3:	mov    $0x2,%r13d
   60ad9:	jmpq   5c9b8 <_IO_vfscanf+0x498>
   60ade:	xchg   %ax,%ax
   60ae0:	mov    %r15,-0x658(%rbp)
   60ae7:	mov    -0x638(%rbp),%r15
   60aee:	mov    %ebx,%r10d
   60af1:	mov    %rsi,-0x668(%rbp)
   60af8:	mov    %rdx,%r14
   60afb:	mov    %r8d,%ebx
   60afe:	movzbl %r10b,%esi
   60b02:	mov    %r13,%rdi
   60b05:	mov    %r10d,-0x628(%rbp)
   60b0c:	sub    $0x1,%r14
   60b10:	callq  7e5a0 <_IO_sputbackc>
   60b15:	mov    -0x628(%rbp),%r10d
   60b1c:	jmpq   5ec94 <_IO_vfscanf+0x2774>
   60b21:	mov    %r13d,%r10d
   60b24:	mov    -0x6b8(%rbp),%r15
   60b2b:	mov    %r12,%r13
   60b2e:	mov    -0x450(%rbp),%rbx
   60b35:	mov    -0x6a4(%rbp),%r12d
   60b3c:	movl   $0xa,-0x600(%rbp)
   60b46:	jmpq   5d92e <_IO_vfscanf+0x140e>
   60b4b:	mov    0x35f316(%rip),%rax        # 3bfe68 <_DYNAMIC+0x308>
   60b52:	mov    -0x5e4(%rbp),%edi
   60b58:	mov    %r13,%r15
   60b5b:	mov    -0x600(%rbp),%r13d
   60b62:	mov    %edi,%fs:(%rax)
   60b65:	mov    -0x5e8(%rbp),%esi
   60b6b:	mov    $0xffffffff,%eax
   60b70:	mov    %eax,%edi
   60b72:	test   %esi,%esi
   60b74:	cmovne %esi,%edi
   60b77:	mov    %edi,-0x5e8(%rbp)
   60b7d:	jmpq   5c9b8 <_IO_vfscanf+0x498>
   60b82:	mov    -0x638(%rbp),%ebx
   60b88:	test   %ebx,%ebx
   60b8a:	jne    615b0 <_IO_vfscanf+0x5090>
   60b90:	mov    -0x5a8(%rbp),%ecx
   60b96:	cmp    $0x2f,%ecx
   60b99:	ja     6302f <_IO_vfscanf+0x6b0f>
   60b9f:	mov    %ecx,%eax
   60ba1:	add    -0x598(%rbp),%rax
   60ba8:	add    $0x8,%ecx
   60bab:	mov    %ecx,-0x5a8(%rbp)
   60bb1:	mov    (%rax),%rax
   60bb4:	mov    %rax,-0x668(%rbp)
   60bbb:	cmpq   $0x0,-0x668(%rbp)
   60bc3:	je     633ee <_IO_vfscanf+0x6ece>
   60bc9:	movl   $0x0,-0x678(%rbp)
   60bd3:	jmpq   5d67d <_IO_vfscanf+0x115d>
   60bd8:	mov    -0x638(%rbp),%eax
   60bde:	test   %eax,%eax
   60be0:	jne    614f1 <_IO_vfscanf+0x4fd1>
   60be6:	mov    -0x5a8(%rbp),%edx
   60bec:	cmp    $0x2f,%edx
   60bef:	ja     635f6 <_IO_vfscanf+0x70d6>
   60bf5:	mov    %edx,%eax
   60bf7:	add    -0x598(%rbp),%rax
   60bfe:	add    $0x8,%edx
   60c01:	mov    %edx,-0x5a8(%rbp)
   60c07:	mov    (%rax),%rax
   60c0a:	mov    %rax,-0x668(%rbp)
   60c11:	cmpq   $0x0,-0x668(%rbp)
   60c19:	jne    5d499 <_IO_vfscanf+0xf79>
   60c1f:	mov    %r13,%r15
   60c22:	mov    $0x2,%r13d
   60c28:	jmpq   5c9b8 <_IO_vfscanf+0x498>
   60c2d:	nopl   (%rax)
   60c30:	mov    -0x5ec(%rbp),%ebx
   60c36:	mov    -0x440(%rbp),%rdi
   60c3d:	lea    -0x5c8(%rbp),%rsi
   60c44:	mov    %r10d,-0x600(%rbp)
   60c4b:	mov    %ebx,%edx
   60c4d:	and    $0x80,%edx
   60c53:	callq  3c200 <__strtold_internal>
   60c58:	mov    %ebx,%edx
   60c5a:	mov    -0x600(%rbp),%r10d
   60c61:	and    $0x8,%edx
   60c64:	jne    5fa9a <_IO_vfscanf+0x357a>
   60c6a:	mov    -0x440(%rbp),%rdx
   60c71:	mov    -0x5c8(%rbp),%rcx
   60c78:	cmp    %rdx,%rcx
   60c7b:	je     6346d <_IO_vfscanf+0x6f4d>
   60c81:	mov    -0x638(%rbp),%eax
   60c87:	test   %eax,%eax
   60c89:	jne    61ca0 <_IO_vfscanf+0x5780>
   60c8f:	mov    -0x5a8(%rbp),%eax
   60c95:	cmp    $0x2f,%eax
   60c98:	ja     63843 <_IO_vfscanf+0x7323>
   60c9e:	mov    %eax,%esi
   60ca0:	add    -0x598(%rbp),%rsi
   60ca7:	add    $0x8,%eax
   60caa:	mov    %eax,-0x5a8(%rbp)
   60cb0:	cmpb   $0x0,-0x6a0(%rbp)
   60cb7:	mov    (%rsi),%rax
   60cba:	je     60cbe <_IO_vfscanf+0x479e>
   60cbc:	fchs   
   60cbe:	fstpt  (%rax)
   60cc0:	jmpq   5ebfe <_IO_vfscanf+0x26de>
   60cc5:	mov    -0x650(%rbp),%rsi
   60ccc:	mov    -0x630(%rbp),%rdi
   60cd3:	xor    %ebx,%ebx
   60cd5:	mov    -0x638(%rbp),%r8d
   60cdc:	mov    (%rsi),%rdx
   60cdf:	mov    %rdx,(%rdi)
   60ce2:	mov    0x8(%rsi),%rcx
   60ce6:	mov    %rcx,0x8(%rdi)
   60cea:	mov    0x10(%rsi),%rsi
   60cee:	mov    %rsi,0x10(%rdi)
   60cf2:	mov    %edx,%esi
   60cf4:	xor    %edi,%edi
   60cf6:	sub    $0x1,%r8d
   60cfa:	je     636df <_IO_vfscanf+0x71bf>
   60d00:	cmp    $0x2f,%esi
   60d03:	ja     636d1 <_IO_vfscanf+0x71b1>
   60d09:	add    $0x8,%esi
   60d0c:	mov    $0x1,%ebx
   60d11:	jmp    60cf6 <_IO_vfscanf+0x47d6>
   60d13:	nopl   0x0(%rax,%rax,1)
   60d18:	mov    0x35f149(%rip),%rax        # 3bfe68 <_DYNAMIC+0x308>
   60d1f:	mov    -0x5e4(%rbp),%esi
   60d25:	mov    %r13,%r15
   60d28:	mov    %esi,%fs:(%rax)
   60d2b:	mov    -0x5e8(%rbp),%esi
   60d31:	mov    $0x1,%r13d
   60d37:	test   %esi,%esi
   60d39:	jne    5c9b8 <_IO_vfscanf+0x498>
   60d3f:	movl   $0xffffffff,-0x5e8(%rbp)
   60d49:	jmpq   5c9b8 <_IO_vfscanf+0x498>
   60d4e:	lea    -0x1(%r12),%ecx
   60d53:	movslq %r12d,%r12
   60d56:	mov    %rax,%r14
   60d59:	lea    (%r12,%rax,1),%rax
   60d5d:	mov    -0x608(%rbp),%r12
   60d64:	mov    -0x658(%rbp),%rbx
   60d6b:	mov    %r15,-0x600(%rbp)
   60d72:	mov    %r14,%r15
   60d75:	mov    %ecx,%r14d
   60d78:	mov    %rax,-0x628(%rbp)
   60d7f:	mov    -0x668(%rbp),%rax
   60d86:	mov    (%r12),%rdi
   60d8a:	lea    (%rdi,%rbx,1),%rsi
   60d8e:	cmp    %rsi,%rax
   60d91:	je     60dd5 <_IO_vfscanf+0x48b5>
   60d93:	test   %r14d,%r14d
   60d96:	lea    0x1(%rax),%rsi
   60d9a:	mov    %r10b,(%rax)
   60d9d:	jle    61600 <_IO_vfscanf+0x50e0>
   60da3:	mov    0x8(%r13),%rax
   60da7:	cmp    0x10(%r13),%rax
   60dab:	jae    60e36 <_IO_vfscanf+0x4916>
   60db1:	lea    0x1(%rax),%rcx
   60db5:	mov    %rcx,0x8(%r13)
   60db9:	movzbl (%rax),%r10d
   60dbd:	mov    (%r12),%rdi
   60dc1:	mov    %rsi,%rax
   60dc4:	add    $0x1,%r15
   60dc8:	sub    $0x1,%r14d
   60dcc:	lea    (%rdi,%rbx,1),%rsi
   60dd0:	cmp    %rsi,%rax
   60dd3:	jne    60d93 <_IO_vfscanf+0x4873>
   60dd5:	mov    -0x628(%rbp),%rax
   60ddc:	movslq %r14d,%r8
   60ddf:	mov    %r10d,-0x668(%rbp)
   60de6:	mov    %rbx,-0x658(%rbp)
   60ded:	sub    %r15,%rax
   60df0:	cmp    %rax,%rbx
   60df3:	cmovl  %rbx,%r8
   60df7:	add    %rbx,%r8
   60dfa:	mov    %r8,%rsi
   60dfd:	mov    %r8,-0x638(%rbp)
   60e04:	callq  1f990 <*ABS*+0x911b0@plt+0x10>
   60e09:	test   %rax,%rax
   60e0c:	mov    -0x638(%rbp),%r8
   60e13:	mov    -0x658(%rbp),%rcx
   60e1a:	mov    -0x668(%rbp),%r10d
   60e21:	je     63046 <_IO_vfscanf+0x6b26>
   60e27:	mov    %rax,(%r12)
   60e2b:	add    %rbx,%rax
   60e2e:	mov    %r8,%rbx
   60e31:	jmpq   60d93 <_IO_vfscanf+0x4873>
   60e36:	mov    %r13,%rdi
   60e39:	mov    %rsi,-0x638(%rbp)
   60e40:	callq  7d720 <__uflow>
   60e45:	cmp    $0xffffffff,%eax
   60e48:	mov    %eax,%r10d
   60e4b:	mov    -0x638(%rbp),%rsi
   60e52:	jne    60dbd <_IO_vfscanf+0x489d>
   60e58:	mov    %rbx,-0x658(%rbp)
   60e5f:	mov    %r15,%r14
   60e62:	mov    %rsi,%rbx
   60e65:	mov    -0x600(%rbp),%r15
   60e6c:	jmpq   5fe64 <_IO_vfscanf+0x3944>
   60e71:	mov    -0x638(%rbp),%eax
   60e77:	test   %eax,%eax
   60e79:	jne    61728 <_IO_vfscanf+0x5208>
   60e7f:	mov    -0x5a8(%rbp),%ecx
   60e85:	cmp    $0x2f,%ecx
   60e88:	ja     63eeb <_IO_vfscanf+0x79cb>
   60e8e:	mov    %ecx,%eax
   60e90:	add    -0x598(%rbp),%rax
   60e97:	add    $0x8,%ecx
   60e9a:	mov    %ecx,-0x5a8(%rbp)
   60ea0:	mov    (%rax),%rax
   60ea3:	mov    %rax,-0x640(%rbp)
   60eaa:	cmpq   $0x0,-0x640(%rbp)
   60eb2:	jne    60bc9 <_IO_vfscanf+0x46a9>
   60eb8:	mov    %r13,%r15
   60ebb:	mov    $0x2,%r13d
   60ec1:	jmpq   5c9b8 <_IO_vfscanf+0x498>
   60ec6:	nopw   %cs:0x0(%rax,%rax,1)
   60ed0:	mov    -0x6b0(%rbp),%rdi
   60ed7:	sub    -0x440(%rbp),%rbx
   60ede:	callq  8afb0 <__libc_scratch_buffer_grow_preserve>
   60ee3:	test   %al,%al
   60ee5:	je     62733 <_IO_vfscanf+0x6213>
   60eeb:	mov    -0x440(%rbp),%rax
   60ef2:	mov    %rax,%rcx
   60ef5:	add    -0x438(%rbp),%rcx
   60efc:	add    %rax,%rbx
   60eff:	lea    0x1(%rbx),%rax
   60f03:	mov    %rax,-0x450(%rbp)
   60f0a:	mov    %rcx,-0x448(%rbp)
   60f11:	mov    %r12b,(%rbx)
   60f14:	jmpq   5dc49 <_IO_vfscanf+0x1729>
   60f19:	mov    -0x650(%rbp),%rsi
   60f20:	mov    -0x630(%rbp),%rdi
   60f27:	mov    -0x638(%rbp),%r8d
   60f2e:	mov    (%rsi),%rax
   60f31:	mov    %rax,(%rdi)
   60f34:	mov    0x8(%rsi),%rdx
   60f38:	mov    %rdx,0x8(%rdi)
   60f3c:	mov    0x10(%rsi),%rcx
   60f40:	xor    %esi,%esi
   60f42:	mov    %rcx,0x10(%rdi)
   60f46:	mov    %eax,%ecx
   60f48:	xor    %edi,%edi
   60f4a:	sub    $0x1,%r8d
   60f4e:	je     62064 <_IO_vfscanf+0x5b44>
   60f54:	cmp    $0x2f,%ecx
   60f57:	ja     62056 <_IO_vfscanf+0x5b36>
   60f5d:	add    $0x8,%ecx
   60f60:	mov    $0x1,%edi
   60f65:	jmp    60f4a <_IO_vfscanf+0x4a2a>
   60f67:	nopw   0x0(%rax,%rax,1)
   60f70:	mov    %esi,%eax
   60f72:	and    $0x200,%eax
   60f77:	mov    %eax,-0x600(%rbp)
   60f7d:	jne    61464 <_IO_vfscanf+0x4f44>
   60f83:	mov    -0x638(%rbp),%eax
   60f89:	test   %eax,%eax
   60f8b:	jne    61a10 <_IO_vfscanf+0x54f0>
   60f91:	mov    -0x5a8(%rbp),%edx
   60f97:	cmp    $0x2f,%edx
   60f9a:	ja     63d84 <_IO_vfscanf+0x7864>
   60fa0:	mov    %edx,%eax
   60fa2:	add    -0x598(%rbp),%rax
   60fa9:	add    $0x8,%edx
   60fac:	mov    %edx,-0x5a8(%rbp)
   60fb2:	mov    (%rax),%rax
   60fb5:	mov    %r14d,(%rax)
   60fb8:	jmpq   5c832 <_IO_vfscanf+0x312>
   60fbd:	lea    (%r15,%r15,1),%r11
   60fc1:	mov    %rdx,-0x690(%rbp)
   60fc8:	mov    %ecx,-0x688(%rbp)
   60fce:	mov    %r8d,-0x678(%rbp)
   60fd5:	mov    %r11,%rsi
   60fd8:	mov    %r11,-0x668(%rbp)
   60fdf:	callq  1f990 <*ABS*+0x911b0@plt+0x10>
   60fe4:	test   %rax,%rax
   60fe7:	mov    -0x668(%rbp),%r11
   60fee:	mov    -0x678(%rbp),%r8d
   60ff5:	mov    -0x688(%rbp),%ecx
   60ffb:	mov    -0x690(%rbp),%rdx
   61002:	je     621a1 <_IO_vfscanf+0x5c81>
   61008:	mov    -0x608(%rbp),%rsi
   6100f:	mov    %rax,(%rsi)
   61012:	lea    (%rax,%r15,1),%rsi
   61016:	mov    %r11,%r15
   61019:	jmpq   5e04b <_IO_vfscanf+0x1b2b>
   6101e:	sub    $0x120,%rsp
   61025:	mov    $0x1,%ecx
   6102a:	lea    0xf(%rsp),%rdx
   6102f:	and    $0xfffffffffffffff0,%rdx
   61033:	mov    %rdx,-0x660(%rbp)
   6103a:	movq   $0x0,(%rdx)
   61041:	mov    %rdi,0x8(%rdx)
   61045:	mov    -0x660(%rbp),%rsi
   6104c:	xor    %edx,%edx
   6104e:	jmpq   5d25e <_IO_vfscanf+0xd3e>
   61053:	testl  $0x200,-0x5ec(%rbp)
   6105d:	jne    616c8 <_IO_vfscanf+0x51a8>
   61063:	mov    -0x638(%rbp),%r9d
   6106a:	test   %r9d,%r9d
   6106d:	je     60a5e <_IO_vfscanf+0x453e>
   61073:	mov    -0x650(%rbp),%rsi
   6107a:	mov    -0x630(%rbp),%rdi
   61081:	xor    %ebx,%ebx
   61083:	mov    (%rsi),%rdx
   61086:	mov    %rdx,(%rdi)
   61089:	mov    0x8(%rsi),%rcx
   6108d:	mov    %rcx,0x8(%rdi)
   61091:	mov    0x10(%rsi),%rsi
   61095:	mov    %rsi,0x10(%rdi)
   61099:	mov    %edx,%esi
   6109b:	xor    %edi,%edi
   6109d:	subl   $0x1,-0x638(%rbp)
   610a4:	je     63eb2 <_IO_vfscanf+0x7992>
   610aa:	cmp    $0x2f,%esi
   610ad:	ja     62177 <_IO_vfscanf+0x5c57>
   610b3:	add    $0x8,%esi
   610b6:	mov    $0x1,%ebx
   610bb:	jmp    6109d <_IO_vfscanf+0x4b7d>
   610bd:	nopl   (%rax)
   610c0:	mov    %r13,%r15
   610c3:	movl   $0xffffffff,-0x5e8(%rbp)
   610cd:	xor    %r13d,%r13d
   610d0:	jmpq   5c9b8 <_IO_vfscanf+0x498>
   610d5:	mov    %esi,%r12d
   610d8:	jmpq   5dd70 <_IO_vfscanf+0x1850>
   610dd:	mov    -0x650(%rbp),%rsi
   610e4:	mov    -0x630(%rbp),%rdi
   610eb:	xor    %ebx,%ebx
   610ed:	mov    (%rsi),%rax
   610f0:	mov    %rax,(%rdi)
   610f3:	mov    0x8(%rsi),%rcx
   610f7:	mov    %rcx,0x8(%rdi)
   610fb:	mov    0x10(%rsi),%rsi
   610ff:	mov    %rsi,0x10(%rdi)
   61103:	mov    %eax,%esi
   61105:	xor    %edi,%edi
   61107:	subl   $0x1,-0x638(%rbp)
   6110e:	je     63ddf <_IO_vfscanf+0x78bf>
   61114:	cmp    $0x2f,%esi
   61117:	ja     63dd1 <_IO_vfscanf+0x78b1>
   6111d:	add    $0x8,%esi
   61120:	mov    $0x1,%edi
   61125:	jmp    61107 <_IO_vfscanf+0x4be7>
   61127:	nopw   0x0(%rax,%rax,1)
   61130:	mov    %r12d,%r10d
   61133:	mov    %r15d,%r12d
   61136:	mov    -0x698(%rbp),%r15
   6113d:	jmpq   5eadd <_IO_vfscanf+0x25bd>
   61142:	mov    -0x688(%rbp),%rax
   61149:	sub    -0x638(%rbp),%rax
   61150:	mov    -0x658(%rbp),%rsi
   61157:	movslq -0x628(%rbp),%r15
   6115e:	mov    %rdx,-0x640(%rbp)
   61165:	cmp    %rax,%rsi
   61168:	cmovle %rsi,%r15
   6116c:	add    %rsi,%r15
   6116f:	lea    0x0(,%r15,4),%rsi
   61177:	callq  1f990 <*ABS*+0x911b0@plt+0x10>
   6117c:	test   %rax,%rax
   6117f:	mov    -0x640(%rbp),%rdx
   61186:	je     62fd5 <_IO_vfscanf+0x6ab5>
   6118c:	mov    -0x608(%rbp),%rdi
   61193:	mov    %r15,-0x658(%rbp)
   6119a:	mov    %rax,(%rdi)
   6119d:	add    %rdx,%rax
   611a0:	mov    %rax,-0x640(%rbp)
   611a7:	jmpq   5d334 <_IO_vfscanf+0xe14>
   611ac:	mov    -0x650(%rbp),%rsi
   611b3:	mov    -0x630(%rbp),%rdi
   611ba:	xor    %ebx,%ebx
   611bc:	mov    (%rsi),%rax
   611bf:	mov    %rax,(%rdi)
   611c2:	mov    0x8(%rsi),%rcx
   611c6:	mov    %rcx,0x8(%rdi)
   611ca:	mov    0x10(%rsi),%rsi
   611ce:	mov    %rsi,0x10(%rdi)
   611d2:	mov    %eax,%esi
   611d4:	xor    %edi,%edi
   611d6:	subl   $0x1,-0x638(%rbp)
   611dd:	je     6357c <_IO_vfscanf+0x705c>
   611e3:	cmp    $0x2f,%esi
   611e6:	ja     6356e <_IO_vfscanf+0x704e>
   611ec:	add    $0x8,%esi
   611ef:	mov    $0x1,%edi
   611f4:	jmp    611d6 <_IO_vfscanf+0x4cb6>
   611f6:	nopw   %cs:0x0(%rax,%rax,1)
   61200:	mov    -0x5ec(%rbp),%r12d
   61207:	mov    %r13,%r15
   6120a:	mov    -0x600(%rbp),%r13d
   61211:	and    $0x2000,%r12d
   61218:	jne    63e67 <_IO_vfscanf+0x7947>
   6121e:	mov    $0x2,%r13d
   61224:	jmpq   5c9b8 <_IO_vfscanf+0x498>
   61229:	pxor   %xmm0,%xmm0
   6122d:	movaps %xmm0,-0x450(%rbp)
   61234:	jmpq   604f6 <_IO_vfscanf+0x3fd6>
   61239:	add    $0x1,%r15
   6123d:	cmpb   $0x0,(%r15)
   61241:	jne    60504 <_IO_vfscanf+0x3fe4>
   61247:	jmpq   60865 <_IO_vfscanf+0x4345>
   6124c:	nopl   0x0(%rax)
   61250:	mov    -0x650(%rbp),%rsi
   61257:	mov    -0x630(%rbp),%rdi
   6125e:	mov    (%rsi),%rax
   61261:	mov    %rax,(%rdi)
   61264:	mov    0x8(%rsi),%rdx
   61268:	mov    %rdx,0x8(%rdi)
   6126c:	mov    0x10(%rsi),%rcx
   61270:	xor    %esi,%esi
   61272:	mov    %rcx,0x10(%rdi)
   61276:	mov    %eax,%ecx
   61278:	xor    %edi,%edi
   6127a:	subl   $0x1,-0x638(%rbp)
   61281:	je     63c18 <_IO_vfscanf+0x76f8>
   61287:	cmp    $0x2f,%ecx
   6128a:	ja     63c0a <_IO_vfscanf+0x76ea>
   61290:	add    $0x8,%ecx
   61293:	mov    $0x1,%esi
   61298:	jmp    6127a <_IO_vfscanf+0x4d5a>
   6129a:	nopw   0x0(%rax,%rax,1)
   612a0:	mov    -0x650(%rbp),%rsi
   612a7:	mov    -0x630(%rbp),%rdi
   612ae:	mov    (%rsi),%rax
   612b1:	mov    %rax,(%rdi)
   612b4:	mov    0x8(%rsi),%rdx
   612b8:	mov    %rdx,0x8(%rdi)
   612bc:	mov    0x10(%rsi),%rcx
   612c0:	xor    %esi,%esi
   612c2:	mov    %rcx,0x10(%rdi)
   612c6:	mov    %eax,%ecx
   612c8:	xor    %edi,%edi
   612ca:	subl   $0x1,-0x638(%rbp)
   612d1:	je     63ba3 <_IO_vfscanf+0x7683>
   612d7:	cmp    $0x2f,%ecx
   612da:	ja     63b95 <_IO_vfscanf+0x7675>
   612e0:	add    $0x8,%ecx
   612e3:	mov    $0x1,%esi
   612e8:	jmp    612ca <_IO_vfscanf+0x4daa>
   612ea:	nopw   0x0(%rax,%rax,1)
   612f0:	mov    %r13,-0x668(%rbp)
   612f7:	mov    -0x688(%rbp),%r15
   612fe:	mov    %rbx,%r13
   61301:	mov    %r14,%rbx
   61304:	mov    -0x690(%rbp),%r14
   6130b:	mov    %r12d,%r10d
   6130e:	movzbl %r10b,%esi
   61312:	mov    %r13,%rdi
   61315:	mov    %r10d,-0x628(%rbp)
   6131c:	sub    $0x1,%rbx
   61320:	callq  7e5a0 <_IO_sputbackc>
   61325:	mov    -0x628(%rbp),%r10d
   6132c:	jmpq   5f4bb <_IO_vfscanf+0x2f9b>
   61331:	mov    -0x650(%rbp),%rsi
   61338:	mov    -0x630(%rbp),%rdi
   6133f:	mov    (%rsi),%rax
   61342:	mov    %rax,(%rdi)
   61345:	mov    0x8(%rsi),%rdx
   61349:	mov    %rdx,0x8(%rdi)
   6134d:	mov    0x10(%rsi),%rcx
   61351:	xor    %esi,%esi
   61353:	mov    %rcx,0x10(%rdi)
   61357:	mov    %eax,%ecx
   61359:	xor    %edi,%edi
   6135b:	subl   $0x1,-0x638(%rbp)
   61362:	je     6334e <_IO_vfscanf+0x6e2e>
   61368:	cmp    $0x2f,%ecx
   6136b:	ja     63340 <_IO_vfscanf+0x6e20>
   61371:	add    $0x8,%ecx
   61374:	mov    $0x1,%edi
   61379:	jmp    6135b <_IO_vfscanf+0x4e3b>
   6137b:	nopl   0x0(%rax,%rax,1)
   61380:	mov    -0x650(%rbp),%rsi
   61387:	mov    -0x630(%rbp),%rdi
   6138e:	xor    %ebx,%ebx
   61390:	mov    (%rsi),%rdx
   61393:	mov    %rdx,(%rdi)
   61396:	mov    0x8(%rsi),%rcx
   6139a:	mov    %rcx,0x8(%rdi)
   6139e:	mov    0x10(%rsi),%rsi
   613a2:	mov    %rsi,0x10(%rdi)
   613a6:	mov    %edx,%esi
   613a8:	xor    %edi,%edi
   613aa:	subl   $0x1,-0x638(%rbp)
   613b1:	je     637ac <_IO_vfscanf+0x728c>
   613b7:	cmp    $0x2f,%esi
   613ba:	ja     635d4 <_IO_vfscanf+0x70b4>
   613c0:	add    $0x8,%esi
   613c3:	mov    $0x1,%ebx
   613c8:	jmp    613aa <_IO_vfscanf+0x4e8a>
   613ca:	nopw   0x0(%rax,%rax,1)
   613d0:	mov    %r12,%r15
   613d3:	mov    %eax,%r10d
   613d6:	jmpq   5febc <_IO_vfscanf+0x399c>
   613db:	mov    %r13,%rdi
   613de:	callq  7d720 <__uflow>
   613e3:	cmp    $0xffffffff,%eax
   613e6:	mov    %eax,%r12d
   613e9:	jne    5eda1 <_IO_vfscanf+0x2881>
   613ef:	mov    %eax,%r10d
   613f2:	mov    0x35ea6f(%rip),%rax        # 3bfe68 <_DYNAMIC+0x308>
   613f9:	mov    -0x638(%rbp),%r15
   61400:	mov    %fs:(%rax),%eax
   61403:	mov    %eax,-0x5e4(%rbp)
   61409:	jmpq   5ede6 <_IO_vfscanf+0x28c6>
   6140e:	mov    %r13,%rdi
   61411:	callq  7d720 <__uflow>
   61416:	cmp    $0xffffffff,%eax
   61419:	mov    %eax,%r10d
   6141c:	jne    5fe08 <_IO_vfscanf+0x38e8>
   61422:	mov    0x35ea3f(%rip),%rax        # 3bfe68 <_DYNAMIC+0x308>
   61429:	mov    %fs:(%rax),%eax
   6142c:	mov    %eax,-0x5e4(%rbp)
   61432:	mov    -0x450(%rbp),%rax
   61439:	mov    %rbx,%r14
   6143c:	jmpq   5eb27 <_IO_vfscanf+0x2607>
   61441:	mov    %r15,-0x658(%rbp)
   61448:	mov    %ebx,%r10d
   6144b:	mov    %rsi,-0x668(%rbp)
   61452:	mov    -0x638(%rbp),%r15
   61459:	mov    %rdx,%r14
   6145c:	mov    %r8d,%ebx
   6145f:	jmpq   5ec94 <_IO_vfscanf+0x2774>
   61464:	mov    -0x638(%rbp),%eax
   6146a:	test   %eax,%eax
   6146c:	jne    61c01 <_IO_vfscanf+0x56e1>
   61472:	mov    -0x5a8(%rbp),%edx
   61478:	cmp    $0x2f,%edx
   6147b:	ja     6367b <_IO_vfscanf+0x715b>
   61481:	mov    %edx,%eax
   61483:	add    -0x598(%rbp),%rax
   6148a:	add    $0x8,%edx
   6148d:	mov    %edx,-0x5a8(%rbp)
   61493:	mov    (%rax),%rax
   61496:	mov    %r14b,(%rax)
   61499:	movl   $0x0,-0x600(%rbp)
   614a3:	jmpq   5c832 <_IO_vfscanf+0x312>
   614a8:	mov    -0x638(%rbp),%r12d
   614af:	test   %r12d,%r12d
   614b2:	jne    61f5f <_IO_vfscanf+0x5a3f>
   614b8:	mov    -0x5a8(%rbp),%ecx
   614be:	cmp    $0x2f,%ecx
   614c1:	ja     622ab <_IO_vfscanf+0x5d8b>
   614c7:	mov    %ecx,%edx
   614c9:	add    -0x598(%rbp),%rdx
   614d0:	add    $0x8,%ecx
   614d3:	mov    %ecx,-0x5a8(%rbp)
   614d9:	mov    (%rdx),%rdx
   614dc:	mov    %al,(%rdx)
   614de:	jmpq   5da60 <_IO_vfscanf+0x1540>
   614e3:	mov    %r13,%r15
   614e6:	mov    $0x2,%r13d
   614ec:	jmpq   5c9b8 <_IO_vfscanf+0x498>
   614f1:	mov    -0x650(%rbp),%rsi
   614f8:	mov    -0x630(%rbp),%rdi
   614ff:	mov    (%rsi),%rax
   61502:	mov    %rax,(%rdi)
   61505:	mov    0x8(%rsi),%rdx
   61509:	mov    %rdx,0x8(%rdi)
   6150d:	mov    0x10(%rsi),%rcx
   61511:	xor    %esi,%esi
   61513:	mov    %rcx,0x10(%rdi)
   61517:	mov    %eax,%ecx
   61519:	xor    %edi,%edi
   6151b:	subl   $0x1,-0x638(%rbp)
   61522:	je     620bc <_IO_vfscanf+0x5b9c>
   61528:	cmp    $0x2f,%ecx
   6152b:	ja     620ae <_IO_vfscanf+0x5b8e>
   61531:	add    $0x8,%ecx
   61534:	mov    $0x1,%edi
   61539:	jmp    6151b <_IO_vfscanf+0x4ffb>
   6153b:	nopl   0x0(%rax,%rax,1)
   61540:	mov    %r13,%rdi
   61543:	callq  7d720 <__uflow>
   61548:	cmp    $0xffffffff,%eax
   6154b:	mov    %eax,%r10d
   6154e:	jne    5e0b7 <_IO_vfscanf+0x1b97>
   61554:	mov    %r13,%r15
   61557:	jmpq   5e0ee <_IO_vfscanf+0x1bce>
   6155c:	mov    -0x650(%rbp),%rsi
   61563:	mov    -0x630(%rbp),%rdi
   6156a:	mov    (%rsi),%rax
   6156d:	mov    %rax,(%rdi)
   61570:	mov    0x8(%rsi),%rdx
   61574:	mov    %rdx,0x8(%rdi)
   61578:	mov    0x10(%rsi),%rcx
   6157c:	xor    %esi,%esi
   6157e:	mov    %rcx,0x10(%rdi)
   61582:	mov    %eax,%ecx
   61584:	xor    %edi,%edi
   61586:	subl   $0x1,-0x638(%rbp)
   6158d:	je     633af <_IO_vfscanf+0x6e8f>
   61593:	cmp    $0x2f,%ecx
   61596:	ja     633a1 <_IO_vfscanf+0x6e81>
   6159c:	add    $0x8,%ecx
   6159f:	mov    $0x1,%edi
   615a4:	jmp    61586 <_IO_vfscanf+0x5066>
   615a6:	nopw   %cs:0x0(%rax,%rax,1)
   615b0:	mov    -0x650(%rbp),%rsi
   615b7:	mov    -0x630(%rbp),%rdi
   615be:	xor    %ebx,%ebx
   615c0:	mov    (%rsi),%rax
   615c3:	mov    %rax,(%rdi)
   615c6:	mov    0x8(%rsi),%rcx
   615ca:	mov    %rcx,0x8(%rdi)
   615ce:	mov    0x10(%rsi),%rsi
   615d2:	mov    %rsi,0x10(%rdi)
   615d6:	mov    %eax,%esi
   615d8:	xor    %edi,%edi
   615da:	subl   $0x1,-0x638(%rbp)
   615e1:	je     631ba <_IO_vfscanf+0x6c9a>
   615e7:	cmp    $0x2f,%esi
   615ea:	ja     631ac <_IO_vfscanf+0x6c8c>
   615f0:	add    $0x8,%esi
   615f3:	mov    $0x1,%edi
   615f8:	jmp    615da <_IO_vfscanf+0x50ba>
   615fa:	nopw   0x0(%rax,%rax,1)
   61600:	mov    %rbx,-0x658(%rbp)
   61607:	mov    %r15,%r14
   6160a:	mov    %rsi,%rbx
   6160d:	mov    -0x600(%rbp),%r15
   61614:	jmpq   5fe86 <_IO_vfscanf+0x3966>
   61619:	mov    -0x610(%rbp),%rdi
   61620:	mov    $0x30,%esi
   61625:	mov    %r10d,-0x628(%rbp)
   6162c:	callq  5c4c0 <char_buffer_add_slow>
   61631:	mov    -0x628(%rbp),%r10d
   61638:	jmpq   5d97f <_IO_vfscanf+0x145f>
   6163d:	mov    %r13,%rdi
   61640:	callq  7d720 <__uflow>
   61645:	cmp    $0xffffffff,%eax
   61648:	mov    %eax,%r10d
   6164b:	jne    5f680 <_IO_vfscanf+0x3160>
   61651:	mov    %r13,%r15
   61654:	mov    $0x2,%r13d
   6165a:	jmpq   5c9b8 <_IO_vfscanf+0x498>
   6165f:	mov    %eax,%r10d
   61662:	jmpq   5c832 <_IO_vfscanf+0x312>
   61667:	mov    %r13,%rdi
   6166a:	callq  7d720 <__uflow>
   6166f:	cmp    $0xffffffff,%eax
   61672:	mov    %eax,%r10d
   61675:	jne    621fd <_IO_vfscanf+0x5cdd>
   6167b:	mov    %r13,%r15
   6167e:	jmpq   5e13d <_IO_vfscanf+0x1c1d>
   61683:	mov    -0x5ec(%rbp),%r12d
   6168a:	mov    %r13,%r15
   6168d:	mov    -0x600(%rbp),%r13d
   61694:	and    $0x2000,%r12d
   6169b:	jne    63214 <_IO_vfscanf+0x6cf4>
   616a1:	mov    $0x2,%r13d
   616a7:	jmpq   5c9b8 <_IO_vfscanf+0x498>
   616ac:	mov    0x35e7b5(%rip),%rax        # 3bfe68 <_DYNAMIC+0x308>
   616b3:	mov    %rsi,%r15
   616b6:	mov    $0x4,%r13d
   616bc:	movl   $0x54,%fs:(%rax)
   616c3:	jmpq   5c9b8 <_IO_vfscanf+0x498>
   616c8:	mov    -0x638(%rbp),%r8d
   616cf:	test   %r8d,%r8d
   616d2:	je     614b8 <_IO_vfscanf+0x4f98>
   616d8:	mov    -0x650(%rbp),%rsi
   616df:	mov    -0x630(%rbp),%rdi
   616e6:	xor    %ebx,%ebx
   616e8:	mov    (%rsi),%rdx
   616eb:	mov    %rdx,(%rdi)
   616ee:	mov    0x8(%rsi),%rcx
   616f2:	mov    %rcx,0x8(%rdi)
   616f6:	mov    0x10(%rsi),%rsi
   616fa:	mov    %rsi,0x10(%rdi)
   616fe:	mov    %edx,%esi
   61700:	xor    %edi,%edi
   61702:	subl   $0x1,-0x638(%rbp)
   61709:	je     632c5 <_IO_vfscanf+0x6da5>
   6170f:	cmp    $0x2f,%esi
   61712:	ja     63277 <_IO_vfscanf+0x6d57>
   61718:	add    $0x8,%esi
   6171b:	mov    $0x1,%ebx
   61720:	jmp    61702 <_IO_vfscanf+0x51e2>
   61722:	nopw   0x0(%rax,%rax,1)
   61728:	mov    -0x650(%rbp),%rsi
   6172f:	mov    -0x630(%rbp),%rdi
   61736:	xor    %ebx,%ebx
   61738:	mov    (%rsi),%rax
   6173b:	mov    %rax,(%rdi)
   6173e:	mov    0x8(%rsi),%rcx
   61742:	mov    %rcx,0x8(%rdi)
   61746:	mov    0x10(%rsi),%rsi
   6174a:	mov    %rsi,0x10(%rdi)
   6174e:	mov    %eax,%esi
   61750:	xor    %edi,%edi
   61752:	subl   $0x1,-0x638(%rbp)
   61759:	je     634c4 <_IO_vfscanf+0x6fa4>
   6175f:	cmp    $0x2f,%esi
   61762:	ja     634b6 <_IO_vfscanf+0x6f96>
   61768:	add    $0x8,%esi
   6176b:	mov    $0x1,%edi
   61770:	jmp    61752 <_IO_vfscanf+0x5232>
   61772:	nopw   0x0(%rax,%rax,1)
   61778:	mov    0x35e6e9(%rip),%rax        # 3bfe68 <_DYNAMIC+0x308>
   6177f:	mov    %rdi,%r15
   61782:	mov    $0x4,%r13d
   61788:	movl   $0x54,%fs:(%rax)
   6178f:	jmpq   5c9b8 <_IO_vfscanf+0x498>
   61794:	mov    -0x5ec(%rbp),%r12d
   6179b:	mov    %r13,%r15
   6179e:	and    $0x2000,%r12d
   617a5:	jne    61806 <_IO_vfscanf+0x52e6>
   617a7:	mov    -0x608(%rbp),%rax
   617ae:	mov    -0x658(%rbp),%rsi
   617b5:	mov    $0x2,%r13d
   617bb:	addl   $0x1,-0x5e8(%rbp)
   617c2:	movq   $0x0,-0x608(%rbp)
   617cd:	mov    (%rax),%rax
   617d0:	movb   $0x0,-0x1(%rax,%rsi,1)
   617d5:	jmpq   5c9b8 <_IO_vfscanf+0x498>
   617da:	pxor   %xmm0,%xmm0
   617de:	movaps %xmm0,-0x450(%rbp)
   617e5:	jmpq   5dda6 <_IO_vfscanf+0x1886>
   617ea:	mov    %r13,%rdi
   617ed:	callq  7d720 <__uflow>
   617f2:	cmp    $0xffffffff,%eax
   617f5:	mov    %eax,%r10d
   617f8:	jne    5d4bd <_IO_vfscanf+0xf9d>
   617fe:	mov    %r13,%r15
   61801:	jmpq   60951 <_IO_vfscanf+0x4431>
   61806:	xor    %r13d,%r13d
   61809:	movl   $0xffffffff,-0x5e8(%rbp)
   61813:	jmpq   5c9b8 <_IO_vfscanf+0x498>
   61818:	sub    $0x120,%rsp
   6181f:	mov    $0x1,%ecx
   61824:	lea    0xf(%rsp),%rdx
   61829:	and    $0xfffffffffffffff0,%rdx
   6182d:	mov    %rdx,-0x660(%rbp)
   61834:	movq   $0x0,(%rdx)
   6183b:	mov    %rdi,0x8(%rdx)
   6183f:	mov    -0x660(%rbp),%rsi
   61846:	xor    %edx,%edx
   61848:	jmpq   5df95 <_IO_vfscanf+0x1a75>
   6184d:	mov    -0x5ec(%rbp),%r12d
   61854:	mov    %r13,%r15
   61857:	mov    $0xffffffff,%eax
   6185c:	and    $0x2000,%r12d
   61863:	cmp    $0x1,%r12d
   61867:	sbb    %r13d,%r13d
   6186a:	and    $0x2,%r13d
   6186e:	test   %r12d,%r12d
   61871:	cmove  -0x5e8(%rbp),%eax
   61878:	mov    %eax,-0x5e8(%rbp)
   6187e:	jmpq   5c9b8 <_IO_vfscanf+0x498>
   61883:	sub    $0x120,%rsp
   6188a:	mov    -0x660(%rbp),%rsi
   61891:	lea    0xf(%rsp),%rcx
   61896:	and    $0xfffffffffffffff0,%rcx
   6189a:	mov    %rsi,0x8(%rcx)
   6189e:	mov    %rcx,-0x660(%rbp)
   618a5:	mov    $0x1,%esi
   618aa:	movq   $0x0,(%rcx)
   618b1:	mov    -0x660(%rbp),%rdi
   618b8:	xor    %ecx,%ecx
   618ba:	jmpq   5f11a <_IO_vfscanf+0x2bfa>
   618bf:	mov    -0x5ec(%rbp),%r12d
   618c6:	mov    %r13,%r15
   618c9:	mov    $0xffffffff,%eax
   618ce:	and    $0x2000,%r12d
   618d5:	cmp    $0x1,%r12d
   618d9:	sbb    %r13d,%r13d
   618dc:	and    $0x2,%r13d
   618e0:	test   %r12d,%r12d
   618e3:	cmove  -0x5e8(%rbp),%eax
   618ea:	mov    %eax,-0x5e8(%rbp)
   618f0:	jmpq   5c9b8 <_IO_vfscanf+0x498>
   618f5:	mov    0x35e56c(%rip),%rax        # 3bfe68 <_DYNAMIC+0x308>
   618fc:	mov    -0x5e4(%rbp),%edi
   61902:	movl   $0x10,-0x600(%rbp)
   6190c:	mov    %edi,%fs:(%rax)
   6190f:	jmpq   5d8b4 <_IO_vfscanf+0x1394>
   61914:	mov    %r13,%r15
   61917:	mov    $0x2,%r13d
   6191d:	jmpq   5c9b8 <_IO_vfscanf+0x498>
   61922:	mov    -0x610(%rbp),%rdi
   61929:	mov    $0x30,%esi
   6192e:	callq  5c4c0 <char_buffer_add_slow>
   61933:	jmpq   5db78 <_IO_vfscanf+0x1658>
   61938:	mov    -0x650(%rbp),%rsi
   6193f:	mov    -0x630(%rbp),%rbx
   61946:	xor    %r12d,%r12d
   61949:	mov    (%rsi),%rax
   6194c:	mov    %rsi,%rdi
   6194f:	mov    %rax,(%rbx)
   61952:	mov    0x8(%rsi),%rsi
   61956:	mov    %rsi,0x8(%rbx)
   6195a:	mov    0x10(%rdi),%rdi
   6195e:	mov    %rdi,0x10(%rbx)
   61962:	mov    %eax,%edi
   61964:	xor    %ebx,%ebx
   61966:	subl   $0x1,-0x638(%rbp)
   6196d:	je     63128 <_IO_vfscanf+0x6c08>
   61973:	cmp    $0x2f,%edi
   61976:	ja     63119 <_IO_vfscanf+0x6bf9>
   6197c:	add    $0x8,%edi
   6197f:	mov    $0x1,%ebx
   61984:	jmp    61966 <_IO_vfscanf+0x5446>
   61986:	nopw   %cs:0x0(%rax,%rax,1)
   61990:	mov    -0x450(%rbp),%rax
   61997:	cmp    -0x448(%rbp),%rax
   6199e:	je     62f8d <_IO_vfscanf+0x6a6d>
   619a4:	lea    0x1(%rax),%rdx
   619a8:	mov    %rdx,-0x450(%rbp)
   619af:	mov    %r10b,(%rax)
   619b2:	mov    -0x5ec(%rbp),%eax
   619b8:	and    $0x7f,%al
   619ba:	or     $0x8,%ah
   619bd:	cmp    $0xffffffff,%r10d
   619c1:	mov    %eax,-0x5ec(%rbp)
   619c7:	je     62f78 <_IO_vfscanf+0x6a58>
   619cd:	mov    0x8(%r13),%rax
   619d1:	cmp    0x10(%r13),%rax
   619d5:	jae    62f4f <_IO_vfscanf+0x6a2f>
   619db:	lea    0x1(%rax),%rdx
   619df:	mov    %rdx,0x8(%r13)
   619e3:	movzbl (%rax),%r10d
   619e7:	add    $0x1,%r14
   619eb:	test   %r12d,%r12d
   619ee:	jle    62f37 <_IO_vfscanf+0x6a17>
   619f4:	sub    $0x1,%r12d
   619f8:	movl   $0x70,-0x6a4(%rbp)
   61a02:	movb   $0x70,-0x688(%rbp)
   61a09:	xor    %edx,%edx
   61a0b:	jmpq   5dbd2 <_IO_vfscanf+0x16b2>
   61a10:	mov    -0x650(%rbp),%rsi
   61a17:	mov    -0x630(%rbp),%rdi
   61a1e:	mov    (%rsi),%rax
   61a21:	mov    %rax,(%rdi)
   61a24:	mov    0x8(%rsi),%rdx
   61a28:	mov    %rdx,0x8(%rdi)
   61a2c:	mov    0x10(%rsi),%rcx
   61a30:	xor    %esi,%esi
   61a32:	mov    %rcx,0x10(%rdi)
   61a36:	mov    %eax,%ecx
   61a38:	xor    %edi,%edi
   61a3a:	subl   $0x1,-0x638(%rbp)
   61a41:	je     63d4c <_IO_vfscanf+0x782c>
   61a47:	cmp    $0x2f,%ecx
   61a4a:	ja     63d3e <_IO_vfscanf+0x781e>
   61a50:	add    $0x8,%ecx
   61a53:	mov    $0x1,%edi
   61a58:	jmp    61a3a <_IO_vfscanf+0x551a>
   61a5a:	nopw   0x0(%rax,%rax,1)
   61a60:	mov    -0x650(%rbp),%rsi
   61a67:	mov    -0x630(%rbp),%rdi
   61a6e:	xor    %ebx,%ebx
   61a70:	mov    (%rsi),%rdx
   61a73:	mov    %rdx,(%rdi)
   61a76:	mov    0x8(%rsi),%rcx
   61a7a:	mov    %rcx,0x8(%rdi)
   61a7e:	mov    0x10(%rsi),%rsi
   61a82:	mov    %rsi,0x10(%rdi)
   61a86:	mov    %edx,%esi
   61a88:	xor    %edi,%edi
   61a8a:	subl   $0x1,-0x638(%rbp)
   61a91:	je     63eb2 <_IO_vfscanf+0x7992>
   61a97:	cmp    $0x2f,%esi
   61a9a:	ja     62193 <_IO_vfscanf+0x5c73>
   61aa0:	add    $0x8,%esi
   61aa3:	mov    $0x1,%ebx
   61aa8:	jmp    61a8a <_IO_vfscanf+0x556a>
   61aaa:	nopw   0x0(%rax,%rax,1)
   61ab0:	mov    %r13,%rdi
   61ab3:	callq  7d720 <__uflow>
   61ab8:	cmp    $0xffffffff,%eax
   61abb:	mov    %eax,%r10d
   61abe:	jne    5dfda <_IO_vfscanf+0x1aba>
   61ac4:	mov    %r13,%r15
   61ac7:	jmpq   60919 <_IO_vfscanf+0x43f9>
   61acc:	mov    %r13,%rdi
   61acf:	callq  7d720 <__uflow>
   61ad4:	cmp    $0xffffffff,%eax
   61ad7:	mov    %eax,%r10d
   61ada:	jne    63823 <_IO_vfscanf+0x7303>
   61ae0:	mov    %r13,%r15
   61ae3:	mov    -0x600(%rbp),%r13d
   61aea:	jmpq   60b65 <_IO_vfscanf+0x4645>
   61aef:	mov    %r13,%rdi
   61af2:	callq  7d720 <__uflow>
   61af7:	cmp    $0xffffffff,%eax
   61afa:	mov    %eax,%r10d
   61afd:	jne    62036 <_IO_vfscanf+0x5b16>
   61b03:	mov    %r13,%r15
   61b06:	mov    $0x2,%r13d
   61b0c:	jmpq   5c9b8 <_IO_vfscanf+0x498>
   61b11:	sub    $0x120,%rsp
   61b18:	mov    $0x1,%ecx
   61b1d:	lea    0xf(%rsp),%rdx
   61b22:	and    $0xfffffffffffffff0,%rdx
   61b26:	mov    %rsi,0x8(%rdx)
   61b2a:	mov    %rdx,-0x660(%rbp)
   61b31:	movq   $0x0,(%rdx)
   61b38:	mov    -0x660(%rbp),%rsi
   61b3f:	xor    %edx,%edx
   61b41:	jmpq   5d483 <_IO_vfscanf+0xf63>
   61b46:	mov    0x35e31b(%rip),%rax        # 3bfe68 <_DYNAMIC+0x308>
   61b4d:	mov    %r13,%r15
   61b50:	movl   $0xffffffff,-0x5e8(%rbp)
   61b5a:	xor    %r13d,%r13d
   61b5d:	movl   $0xc,%fs:(%rax)
   61b64:	jmpq   5c9b8 <_IO_vfscanf+0x498>
   61b69:	pxor   %xmm0,%xmm0
   61b6d:	movaps %xmm0,-0x450(%rbp)
   61b74:	jmpq   5f20e <_IO_vfscanf+0x2cee>
   61b79:	mov    %r13,%rdi
   61b7c:	callq  7d720 <__uflow>
   61b81:	cmp    $0xffffffff,%eax
   61b84:	mov    %eax,%r10d
   61b87:	jne    5f658 <_IO_vfscanf+0x3138>
   61b8d:	cmpl   $0x6c,0x3fc(%rbx)
   61b94:	mov    0x35e2cd(%rip),%rdx        # 3bfe68 <_DYNAMIC+0x308>
   61b9b:	mov    %r13,%r15
   61b9e:	mov    %fs:(%rdx),%eax
   61ba1:	je     61bf3 <_IO_vfscanf+0x56d3>
   61ba3:	mov    $0x2,%r13d
   61ba9:	jmpq   5c9b8 <_IO_vfscanf+0x498>
   61bae:	xchg   %ax,%ax
   61bb0:	mov    %r13,%rdi
   61bb3:	callq  7d720 <__uflow>
   61bb8:	cmp    $0xffffffff,%eax
   61bbb:	mov    %eax,%r10d
   61bbe:	jne    5f625 <_IO_vfscanf+0x3105>
   61bc4:	cmpl   $0x69,0x3fc(%rbx)
   61bcb:	mov    0x35e296(%rip),%rdx        # 3bfe68 <_DYNAMIC+0x308>
   61bd2:	mov    %r13,%r15
   61bd5:	mov    %fs:(%rdx),%eax
   61bd8:	jne    61ba3 <_IO_vfscanf+0x5683>
   61bda:	mov    -0x5f8(%rbp),%rsi
   61be1:	mov    %eax,%fs:(%rdx)
   61be4:	mov    0x70(%rsi),%rcx
   61be8:	mov    0x3fc(%rcx),%ecx
   61bee:	cmp    $0x6c,%ecx
   61bf1:	jne    61bf6 <_IO_vfscanf+0x56d6>
   61bf3:	mov    %eax,%fs:(%rdx)
   61bf6:	mov    $0x2,%r13d
   61bfc:	jmpq   5c9b8 <_IO_vfscanf+0x498>
   61c01:	mov    -0x650(%rbp),%rsi
   61c08:	mov    -0x630(%rbp),%rdi
   61c0f:	mov    (%rsi),%rax
   61c12:	mov    %rax,(%rdi)
   61c15:	mov    0x8(%rsi),%rdx
   61c19:	mov    %rdx,0x8(%rdi)
   61c1d:	mov    0x10(%rsi),%rcx
   61c21:	xor    %esi,%esi
   61c23:	mov    %rcx,0x10(%rdi)
   61c27:	mov    %eax,%ecx
   61c29:	xor    %edi,%edi
   61c2b:	subl   $0x1,-0x638(%rbp)
   61c32:	je     63f24 <_IO_vfscanf+0x7a04>
   61c38:	cmp    $0x2f,%ecx
   61c3b:	ja     63f16 <_IO_vfscanf+0x79f6>
   61c41:	add    $0x8,%ecx
   61c44:	mov    $0x1,%edi
   61c49:	jmp    61c2b <_IO_vfscanf+0x570b>
   61c4b:	nopl   0x0(%rax,%rax,1)
   61c50:	mov    -0x650(%rbp),%rsi
   61c57:	mov    -0x630(%rbp),%rbx
   61c5e:	xor    %r12d,%r12d
   61c61:	mov    (%rsi),%rax
   61c64:	mov    %rsi,%rdi
   61c67:	mov    %rax,(%rbx)
   61c6a:	mov    0x8(%rsi),%rsi
   61c6e:	mov    %rsi,0x8(%rbx)
   61c72:	mov    0x10(%rdi),%rdi
   61c76:	mov    %rdi,0x10(%rbx)
   61c7a:	mov    %eax,%edi
   61c7c:	xor    %ebx,%ebx
   61c7e:	subl   $0x1,-0x638(%rbp)
   61c85:	je     6363b <_IO_vfscanf+0x711b>
   61c8b:	cmp    $0x2f,%edi
   61c8e:	ja     6362c <_IO_vfscanf+0x710c>
   61c94:	add    $0x8,%edi
   61c97:	mov    $0x1,%ebx
   61c9c:	jmp    61c7e <_IO_vfscanf+0x575e>
   61c9e:	xchg   %ax,%ax
   61ca0:	mov    -0x650(%rbp),%rsi
   61ca7:	mov    -0x630(%rbp),%rbx
   61cae:	xor    %r12d,%r12d
   61cb1:	mov    (%rsi),%rax
   61cb4:	mov    %rsi,%rdi
   61cb7:	mov    %rax,(%rbx)
   61cba:	mov    0x8(%rsi),%rsi
   61cbe:	mov    %rsi,0x8(%rbx)
   61cc2:	mov    0x10(%rdi),%rdi
   61cc6:	mov    %rdi,0x10(%rbx)
   61cca:	mov    %eax,%edi
   61ccc:	xor    %ebx,%ebx
   61cce:	subl   $0x1,-0x638(%rbp)
   61cd5:	je     62ca4 <_IO_vfscanf+0x6784>
   61cdb:	cmp    $0x2f,%edi
   61cde:	ja     62c95 <_IO_vfscanf+0x6775>
   61ce4:	add    $0x8,%edi
   61ce7:	mov    $0x1,%ebx
   61cec:	jmp    61cce <_IO_vfscanf+0x57ae>
   61cee:	xchg   %ax,%ax
   61cf0:	mov    -0x610(%rbp),%rdi
   61cf7:	movsbl %r10b,%esi
   61cfb:	callq  5c4c0 <char_buffer_add_slow>
   61d00:	jmpq   5f9c2 <_IO_vfscanf+0x34a2>
   61d05:	mov    %r13,%r15
   61d08:	mov    $0x2,%r13d
   61d0e:	jmpq   5c9b8 <_IO_vfscanf+0x498>
   61d13:	mov    %r13,%r15
   61d16:	mov    $0x2,%r13d
   61d1c:	jmpq   5c9b8 <_IO_vfscanf+0x498>
   61d21:	mov    %r13,%rdi
   61d24:	callq  7d720 <__uflow>
   61d29:	cmp    $0xffffffff,%eax
   61d2c:	mov    %eax,%r10d
   61d2f:	jne    5f38c <_IO_vfscanf+0x2e6c>
   61d35:	mov    %r13,%r15
   61d38:	jmpq   60d2b <_IO_vfscanf+0x480b>
   61d3d:	mov    %r13,%r15
   61d40:	mov    $0x2,%r13d
   61d46:	jmpq   5c9b8 <_IO_vfscanf+0x498>
   61d4b:	mov    0x35e116(%rip),%rax        # 3bfe68 <_DYNAMIC+0x308>
   61d52:	mov    %r13,%r15
   61d55:	mov    $0x4,%r13d
   61d5b:	movl   $0x54,%fs:(%rax)
   61d62:	jmpq   5c9b8 <_IO_vfscanf+0x498>
   61d67:	mov    %rsi,%rdi
   61d6a:	callq  7d720 <__uflow>
   61d6f:	cmp    $0xffffffff,%eax
   61d72:	mov    %eax,%ebx
   61d74:	jne    5eeb2 <_IO_vfscanf+0x2992>
   61d7a:	mov    %eax,%r10d
   61d7d:	mov    0x35e0e4(%rip),%rax        # 3bfe68 <_DYNAMIC+0x308>
   61d84:	mov    -0x678(%rbp),%r15
   61d8b:	mov    %fs:(%rax),%eax
   61d8e:	mov    %eax,-0x5e4(%rbp)
   61d94:	mov    -0x600(%rbp),%esi
   61d9a:	test   %esi,%esi
   61d9c:	jne    5c77d <_IO_vfscanf+0x25d>
   61da2:	cmpl   $0x0,-0x5ec(%rbp)
   61da9:	je     61dea <_IO_vfscanf+0x58ca>
   61dab:	mov    -0x608(%rbp),%rbx
   61db2:	mov    -0x640(%rbp),%rsi
   61db9:	mov    (%rbx),%rdi
   61dbc:	sub    %rdi,%rsi
   61dbf:	mov    %rsi,%rax
   61dc2:	sar    $0x2,%rax
   61dc6:	cmp    %rax,-0x658(%rbp)
   61dcd:	je     61dea <_IO_vfscanf+0x58ca>
   61dcf:	mov    %r10d,-0x5ec(%rbp)
   61dd6:	callq  1f990 <*ABS*+0x911b0@plt+0x10>
   61ddb:	test   %rax,%rax
   61dde:	mov    -0x5ec(%rbp),%r10d
   61de5:	je     61dea <_IO_vfscanf+0x58ca>
   61de7:	mov    %rax,(%rbx)
   61dea:	addl   $0x1,-0x5e8(%rbp)
   61df1:	movq   $0x0,-0x608(%rbp)
   61dfc:	jmpq   5c832 <_IO_vfscanf+0x312>
   61e01:	nopl   0x0(%rax)
   61e08:	mov    %r13,%rdi
   61e0b:	callq  7d720 <__uflow>
   61e10:	cmp    $0xffffffff,%eax
   61e13:	mov    %eax,%r10d
   61e16:	jne    5db10 <_IO_vfscanf+0x15f0>
   61e1c:	mov    %r13,%r15
   61e1f:	mov    $0x2,%r13d
   61e25:	jmpq   5c9b8 <_IO_vfscanf+0x498>
   61e2a:	mov    %r13,%r15
   61e2d:	mov    $0x2,%r13d
   61e33:	jmpq   5c9b8 <_IO_vfscanf+0x498>
   61e38:	pxor   %xmm0,%xmm0
   61e3c:	movaps %xmm0,-0x450(%rbp)
   61e43:	jmpq   5d847 <_IO_vfscanf+0x1327>
   61e48:	sub    $0x120,%rsp
   61e4f:	mov    -0x660(%rbp),%rdi
   61e56:	mov    $0x1,%esi
   61e5b:	lea    0xf(%rsp),%rcx
   61e60:	and    $0xfffffffffffffff0,%rcx
   61e64:	movq   $0x0,(%rcx)
   61e6b:	mov    %rdi,0x8(%rcx)
   61e6f:	mov    %rcx,-0x660(%rbp)
   61e76:	xor    %ecx,%ecx
   61e78:	jmpq   5d655 <_IO_vfscanf+0x1135>
   61e7d:	mov    -0x5ec(%rbp),%r12d
   61e84:	mov    %r13,%r15
   61e87:	mov    $0xffffffff,%eax
   61e8c:	and    $0x2000,%r12d
   61e93:	cmp    $0x1,%r12d
   61e97:	sbb    %r13d,%r13d
   61e9a:	and    $0x2,%r13d
   61e9e:	test   %r12d,%r12d
   61ea1:	cmove  -0x5e8(%rbp),%eax
   61ea8:	mov    %eax,-0x5e8(%rbp)
   61eae:	jmpq   5c9b8 <_IO_vfscanf+0x498>
   61eb3:	mov    -0x5ec(%rbp),%r12d
   61eba:	mov    %r13,%r15
   61ebd:	mov    $0xffffffff,%eax
   61ec2:	and    $0x2000,%r12d
   61ec9:	cmp    $0x1,%r12d
   61ecd:	sbb    %r13d,%r13d
   61ed0:	and    $0x2,%r13d
   61ed4:	test   %r12d,%r12d
   61ed7:	cmove  -0x5e8(%rbp),%eax
   61ede:	mov    %eax,-0x5e8(%rbp)
   61ee4:	jmpq   5c9b8 <_IO_vfscanf+0x498>
   61ee9:	pxor   %xmm0,%xmm0
   61eed:	mov    %r13,%r15
   61ef0:	movaps %xmm0,-0x450(%rbp)
   61ef7:	jmpq   5f972 <_IO_vfscanf+0x3452>
   61efc:	mov    %r13,%rdi
   61eff:	callq  7d720 <__uflow>
   61f04:	cmp    $0xffffffff,%eax
   61f07:	mov    %eax,%r10d
   61f0a:	jne    5e813 <_IO_vfscanf+0x22f3>
   61f10:	cmpl   $0x6e,0x3fc(%rbx)
   61f17:	mov    0x35df4a(%rip),%rax        # 3bfe68 <_DYNAMIC+0x308>
   61f1e:	mov    %r13,%r15
   61f21:	mov    %fs:(%rax),%edx
   61f24:	jne    61ba3 <_IO_vfscanf+0x5683>
   61f2a:	mov    -0x5f8(%rbp),%rdi
   61f31:	mov    %edx,%fs:(%rax)
   61f34:	mov    0x70(%rdi),%rcx
   61f38:	mov    0x3fc(%rcx),%ecx
   61f3e:	cmp    $0x69,%ecx
   61f41:	jne    61654 <_IO_vfscanf+0x5134>
   61f47:	mov    %edx,%fs:(%rax)
   61f4a:	jmpq   61bf6 <_IO_vfscanf+0x56d6>
   61f4f:	pxor   %xmm0,%xmm0
   61f53:	movaps %xmm0,-0x450(%rbp)
   61f5a:	jmpq   5d7db <_IO_vfscanf+0x12bb>
   61f5f:	mov    -0x650(%rbp),%rsi
   61f66:	mov    -0x630(%rbp),%rdi
   61f6d:	xor    %ebx,%ebx
   61f6f:	mov    (%rsi),%rdx
   61f72:	mov    %rdx,(%rdi)
   61f75:	mov    0x8(%rsi),%rcx
   61f79:	mov    %rcx,0x8(%rdi)
   61f7d:	mov    0x10(%rsi),%rsi
   61f81:	mov    %rsi,0x10(%rdi)
   61f85:	mov    %edx,%esi
   61f87:	xor    %edi,%edi
   61f89:	subl   $0x1,-0x638(%rbp)
   61f90:	je     632c5 <_IO_vfscanf+0x6da5>
   61f96:	cmp    $0x2f,%esi
   61f99:	ja     6228b <_IO_vfscanf+0x5d6b>
   61f9f:	add    $0x8,%esi
   61fa2:	mov    $0x1,%ebx
   61fa7:	jmp    61f89 <_IO_vfscanf+0x5a69>
   61fa9:	nopl   0x0(%rax)
   61fb0:	mov    %r13,%r15
   61fb3:	mov    $0x2,%r13d
   61fb9:	jmpq   5c9b8 <_IO_vfscanf+0x498>
   61fbe:	mov    -0x610(%rbp),%rdi
   61fc5:	xor    %esi,%esi
   61fc7:	mov    %r10d,-0x600(%rbp)
   61fce:	callq  5c4c0 <char_buffer_add_slow>
   61fd3:	mov    -0x600(%rbp),%r10d
   61fda:	jmpq   5eb42 <_IO_vfscanf+0x2622>
   61fdf:	mov    %r13,%r15
   61fe2:	mov    $0x2,%r13d
   61fe8:	jmpq   5c9b8 <_IO_vfscanf+0x498>
   61fed:	mov    %r13,%rdi
   61ff0:	callq  7d720 <__uflow>
   61ff5:	cmp    $0xffffffff,%eax
   61ff8:	mov    %eax,%r10d
   61ffb:	jne    6202d <_IO_vfscanf+0x5b0d>
   61ffd:	mov    %r13,%r15
   62000:	mov    $0x2,%r13d
   62006:	jmpq   5c9b8 <_IO_vfscanf+0x498>
   6200b:	mov    %r13,%r15
   6200e:	mov    $0x2,%r13d
   62014:	jmpq   5c9b8 <_IO_vfscanf+0x498>
   62019:	mov    -0x610(%rbp),%rdi
   62020:	movsbl %al,%esi
   62023:	callq  5c4c0 <char_buffer_add_slow>
   62028:	jmpq   5fa28 <_IO_vfscanf+0x3508>
   6202d:	add    $0x2,%r14
   62031:	jmpq   5fa4f <_IO_vfscanf+0x352f>
   62036:	lea    0x2(%r14),%rbx
   6203a:	jmpq   5fd9f <_IO_vfscanf+0x387f>
   6203f:	mov    -0x5a0(%rbp),%rax
   62046:	lea    0x8(%rax),%rdx
   6204a:	mov    %rdx,-0x5a0(%rbp)
   62051:	jmpq   5f8a1 <_IO_vfscanf+0x3381>
   62056:	add    $0x8,%rdx
   6205a:	mov    $0x1,%esi
   6205f:	jmpq   60f4a <_IO_vfscanf+0x4a2a>
   62064:	test   %dil,%dil
   62067:	je     62071 <_IO_vfscanf+0x5b51>
   62069:	mov    %ecx,-0x520(%rbp)
   6206f:	mov    %ecx,%eax
   62071:	test   %sil,%sil
   62074:	je     6207d <_IO_vfscanf+0x5b5d>
   62076:	mov    %rdx,-0x518(%rbp)
   6207d:	cmp    $0x2f,%eax
   62080:	ja     62112 <_IO_vfscanf+0x5bf2>
   62086:	mov    %eax,%edx
   62088:	add    -0x510(%rbp),%rdx
   6208f:	add    $0x8,%eax
   62092:	mov    %eax,-0x520(%rbp)
   62098:	mov    (%rdx),%rax
   6209b:	jmpq   5d57f <_IO_vfscanf+0x105f>
   620a0:	mov    %r13,%r15
   620a3:	mov    $0x2,%r13d
   620a9:	jmpq   5c9b8 <_IO_vfscanf+0x498>
   620ae:	add    $0x8,%rdx
   620b2:	mov    $0x1,%esi
   620b7:	jmpq   6151b <_IO_vfscanf+0x4ffb>
   620bc:	test   %dil,%dil
   620bf:	je     620c9 <_IO_vfscanf+0x5ba9>
   620c1:	mov    %ecx,-0x520(%rbp)
   620c7:	mov    %ecx,%eax
   620c9:	test   %sil,%sil
   620cc:	je     620d5 <_IO_vfscanf+0x5bb5>
   620ce:	mov    %rdx,-0x518(%rbp)
   620d5:	cmp    $0x2f,%eax
   620d8:	ja     62129 <_IO_vfscanf+0x5c09>
   620da:	mov    %eax,%edx
   620dc:	add    -0x510(%rbp),%rdx
   620e3:	add    $0x8,%eax
   620e6:	mov    %eax,-0x520(%rbp)
   620ec:	mov    (%rdx),%rax
   620ef:	mov    %rax,-0x668(%rbp)
   620f6:	jmpq   60c11 <_IO_vfscanf+0x46f1>
   620fb:	mov    -0x5a0(%rbp),%rax
   62102:	lea    0x8(%rax),%rdx
   62106:	mov    %rdx,-0x5a0(%rbp)
   6210d:	jmpq   5d00b <_IO_vfscanf+0xaeb>
   62112:	mov    -0x518(%rbp),%rdx
   62119:	lea    0x8(%rdx),%rax
   6211d:	mov    %rax,-0x518(%rbp)
   62124:	jmpq   62098 <_IO_vfscanf+0x5b78>
   62129:	mov    -0x518(%rbp),%rdx
   62130:	lea    0x8(%rdx),%rax
   62134:	mov    %rax,-0x518(%rbp)
   6213b:	jmp    620ec <_IO_vfscanf+0x5bcc>
   6213d:	mov    %r12d,%r10d
   62140:	mov    %r15d,%r12d
   62143:	mov    -0x698(%rbp),%r15
   6214a:	cmp    $0xffffffff,%r10d
   6214e:	je     5eadd <_IO_vfscanf+0x25bd>
   62154:	movzbl %r10b,%esi
   62158:	mov    %r13,%rdi
   6215b:	mov    %r10d,-0x628(%rbp)
   62162:	sub    $0x1,%r14
   62166:	callq  7e5a0 <_IO_sputbackc>
   6216b:	mov    -0x628(%rbp),%r10d
   62172:	jmpq   5eadd <_IO_vfscanf+0x25bd>
   62177:	add    $0x8,%rcx
   6217b:	mov    $0x1,%edi
   62180:	jmpq   6109d <_IO_vfscanf+0x4b7d>
   62185:	mov    %r13,%r15
   62188:	mov    $0x2,%r13d
   6218e:	jmpq   5c9b8 <_IO_vfscanf+0x498>
   62193:	add    $0x8,%rcx
   62197:	mov    $0x1,%edi
   6219c:	jmpq   61a8a <_IO_vfscanf+0x556a>
   621a1:	mov    -0x608(%rbp),%rax
   621a8:	add    $0x1,%r15
   621ac:	mov    %rdx,-0x688(%rbp)
   621b3:	mov    %r15,%rsi
   621b6:	mov    %ecx,-0x678(%rbp)
   621bc:	mov    %r8d,-0x668(%rbp)
   621c3:	mov    (%rax),%rdi
   621c6:	callq  1f990 <*ABS*+0x911b0@plt+0x10>
   621cb:	test   %rax,%rax
   621ce:	mov    -0x668(%rbp),%r8d
   621d5:	mov    -0x678(%rbp),%ecx
   621db:	mov    -0x688(%rbp),%rdx
   621e2:	je     62226 <_IO_vfscanf+0x5d06>
   621e4:	mov    -0x608(%rbp),%rdi
   621eb:	mov    -0x658(%rbp),%rsi
   621f2:	mov    %rax,(%rdi)
   621f5:	add    %rax,%rsi
   621f8:	jmpq   5e04b <_IO_vfscanf+0x1b2b>
   621fd:	add    $0x1,%r14
   62201:	test   %r12d,%r12d
   62204:	jg     5dad1 <_IO_vfscanf+0x15b1>
   6220a:	lea    -0x2b(%rax),%eax
   6220d:	and    $0xfffffffd,%eax
   62210:	jne    5f1b4 <_IO_vfscanf+0x2c94>
   62216:	cmp    $0x2d,%r10d
   6221a:	sete   -0x6a0(%rbp)
   62221:	jmpq   5daf6 <_IO_vfscanf+0x15d6>
   62226:	mov    -0x5ec(%rbp),%r12d
   6222d:	mov    %r13,%r15
   62230:	and    $0x2000,%r12d
   62237:	jne    62299 <_IO_vfscanf+0x5d79>
   62239:	mov    -0x608(%rbp),%rax
   62240:	mov    -0x658(%rbp),%rsi
   62247:	mov    $0x2,%r13d
   6224d:	addl   $0x1,-0x5e8(%rbp)
   62254:	movq   $0x0,-0x608(%rbp)
   6225f:	mov    (%rax),%rax
   62262:	movb   $0x0,-0x1(%rax,%rsi,1)
   62267:	jmpq   5c9b8 <_IO_vfscanf+0x498>
   6226c:	mov    %r13,%rdi
   6226f:	callq  7d720 <__uflow>
   62274:	cmp    $0xffffffff,%eax
   62277:	jne    5f9e4 <_IO_vfscanf+0x34c4>
   6227d:	mov    %r13,%r15
   62280:	mov    $0x2,%r13d
   62286:	jmpq   5c9b8 <_IO_vfscanf+0x498>
   6228b:	add    $0x8,%rcx
   6228f:	mov    $0x1,%edi
   62294:	jmpq   61f89 <_IO_vfscanf+0x5a69>
   62299:	xor    %r13d,%r13d
   6229c:	movl   $0xffffffff,-0x5e8(%rbp)
   622a6:	jmpq   5c9b8 <_IO_vfscanf+0x498>
   622ab:	mov    -0x5a0(%rbp),%rdx
   622b2:	lea    0x8(%rdx),%rcx
   622b6:	mov    %rcx,-0x5a0(%rbp)
   622bd:	jmpq   614d9 <_IO_vfscanf+0x4fb9>
   622c2:	mov    %r13,%r15
   622c5:	mov    $0x2,%r13d
   622cb:	jmpq   5c9b8 <_IO_vfscanf+0x498>
   622d0:	cmpl   $0x0,-0x600(%rbp)
   622d7:	jne    5eafd <_IO_vfscanf+0x25dd>
   622dd:	cmp    %rax,-0x440(%rbp)
   622e4:	je     622f3 <_IO_vfscanf+0x5dd3>
   622e6:	testb  $0x1,-0x678(%rbp)
   622ed:	je     5eafd <_IO_vfscanf+0x25dd>
   622f3:	lea    0x127753(%rip),%rdi        # 189a4d <null+0xf>
   622fa:	mov    %r10d,-0x628(%rbp)
   62301:	callq  10b870 <wctrans>
   62306:	test   %rax,%rax
   62309:	mov    %rax,-0x6b0(%rbp)
   62310:	mov    -0x628(%rbp),%r10d
   62317:	je     624e8 <_IO_vfscanf+0x5fc8>
   6231d:	cmp    $0xffffffff,%r10d
   62321:	je     62575 <_IO_vfscanf+0x6055>
   62327:	mov    0x8(%r13),%rax
   6232b:	cmp    0x10(%r13),%rax
   6232f:	jae    6254c <_IO_vfscanf+0x602c>
   62335:	lea    0x1(%rax),%rdx
   62339:	mov    %rdx,0x8(%r13)
   6233d:	movzbl (%rax),%r10d
   62341:	add    $0x1,%r14
   62345:	mov    -0x6b0(%rbp),%rsi
   6234c:	mov    $0x2e,%edi
   62351:	mov    %r10d,-0x628(%rbp)
   62358:	callq  10b900 <__towctrans>
   6235d:	mov    -0x440(%rbp),%rdi
   62364:	cmp    %rdi,-0x450(%rbp)
   6236b:	lea    -0x5c0(%rbp),%rsi
   62372:	mov    -0x680(%rbp),%rdi
   62379:	mov    %eax,-0x544(%rbp)
   6237f:	mov    %rsi,-0x698(%rbp)
   62386:	mov    %rsi,%rdx
   62389:	mov    %eax,%esi
   6238b:	movq   $0x0,-0x5c0(%rbp)
   62396:	sete   %bl
   62399:	callq  ac610 <c32rtomb>
   6239e:	cmp    $0xffffffffffffffff,%rax
   623a2:	mov    %rax,%rsi
   623a5:	mov    -0x628(%rbp),%r10d
   623ac:	je     624cd <_IO_vfscanf+0x5fad>
   623b2:	mov    -0x670(%rbp),%rdi
   623b9:	movb   $0x0,-0x465(%rbp,%rax,1)
   623c1:	or     $0xffffffffffffffff,%rcx
   623c5:	xor    %eax,%eax
   623c7:	repnz scas %es:(%rdi),%al
   623c9:	mov    %rcx,%rax
   623cc:	mov    -0x450(%rbp),%rcx
   623d3:	sub    -0x440(%rbp),%rcx
   623da:	not    %rax
   623dd:	lea    -0x1(%rax),%rdx
   623e1:	xor    %eax,%eax
   623e3:	cmp    %rcx,%rdx
   623e6:	jne    62407 <_IO_vfscanf+0x5ee7>
   623e8:	mov    -0x680(%rbp),%rsi
   623ef:	mov    -0x670(%rbp),%rdi
   623f6:	callq  8b5b0 <__GI_strcmp>
   623fb:	mov    -0x628(%rbp),%r10d
   62402:	test   %eax,%eax
   62404:	sete   %al
   62407:	or     %ebx,%eax
   62409:	test   %al,%al
   6240b:	je     624e8 <_IO_vfscanf+0x5fc8>
   62411:	mov    -0x630(%rbp),%rax
   62418:	xor    %ebx,%ebx
   6241a:	mov    %r10d,-0x6c0(%rbp)
   62421:	mov    %rax,-0x6b8(%rbp)
   62428:	movzbl -0x6c8(%rbp),%eax
   6242f:	mov    %al,-0x6d0(%rbp)
   62435:	lea    -0x570(%rbp),%rax
   6243c:	mov    %rax,-0x628(%rbp)
   62443:	cmp    $0xa,%rbx
   62447:	mov    %ebx,-0x6a8(%rbp)
   6244d:	je     62596 <_IO_vfscanf+0x6076>
   62453:	mov    -0x6b0(%rbp),%rsi
   6245a:	lea    0x30(%rbx),%edi
   6245d:	callq  10b900 <__towctrans>
   62462:	mov    -0x698(%rbp),%rdi
   62469:	mov    -0x628(%rbp),%rsi
   62470:	movq   $0x0,(%rdi)
   62477:	mov    %rdi,%rdx
   6247a:	mov    -0x6b8(%rbp),%rdi
   62481:	mov    %eax,(%rsi,%rbx,4)
   62484:	mov    %eax,%esi
   62486:	callq  ac610 <c32rtomb>
   6248b:	cmp    $0xffffffffffffffff,%rax
   6248f:	je     6258a <_IO_vfscanf+0x606a>
   62495:	movslq -0x6a8(%rbp),%rdx
   6249c:	lea    -0x30(%rbp),%rdi
   624a0:	add    $0x1,%rbx
   624a4:	addq   $0x11,-0x6b8(%rbp)
   624ac:	imul   $0x11,%rdx,%rdx
   624b0:	add    %rdi,%rdx
   624b3:	cmp    $0xb,%rbx
   624b7:	movb   $0x0,-0x4f0(%rax,%rdx,1)
   624bf:	jne    62443 <_IO_vfscanf+0x5f23>
   624c1:	mov    -0x6c0(%rbp),%r10d
   624c8:	jmpq   62632 <_IO_vfscanf+0x6112>
   624cd:	mov    -0x670(%rbp),%rdi
   624d4:	xor    %eax,%eax
   624d6:	mov    %rsi,%rcx
   624d9:	repnz scas %es:(%rdi),%al
   624db:	not    %rcx
   624de:	lea    -0x1(%rcx),%rdx
   624e2:	cmp    $0x10,%rdx
   624e6:	jbe    6251f <_IO_vfscanf+0x5fff>
   624e8:	mov    -0x450(%rbp),%rax
   624ef:	test   %rax,%rax
   624f2:	jne    5eafd <_IO_vfscanf+0x25dd>
   624f8:	mov    0x35d969(%rip),%rax        # 3bfe68 <_DYNAMIC+0x308>
   624ff:	mov    %r13,%r15
   62502:	movl   $0xffffffff,-0x5e8(%rbp)
   6250c:	mov    -0x600(%rbp),%r13d
   62513:	movl   $0xc,%fs:(%rax)
   6251a:	jmpq   5c9b8 <_IO_vfscanf+0x498>
   6251f:	mov    -0x450(%rbp),%rax
   62526:	sub    -0x440(%rbp),%rax
   6252d:	mov    %ecx,%ecx
   6252f:	mov    -0x680(%rbp),%rdi
   62536:	mov    -0x670(%rbp),%rsi
   6253d:	rep movsb %ds:(%rsi),%es:(%rdi)
   6253f:	cmp    %rdx,%rax
   62542:	sete   %al
   62545:	or     %ebx,%eax
   62547:	jmpq   62409 <_IO_vfscanf+0x5ee9>
   6254c:	mov    %r13,%rdi
   6254f:	callq  7d720 <__uflow>
   62554:	cmp    $0xffffffff,%eax
   62557:	mov    %eax,%r10d
   6255a:	jne    62341 <_IO_vfscanf+0x5e21>
   62560:	mov    0x35d901(%rip),%rax        # 3bfe68 <_DYNAMIC+0x308>
   62567:	mov    %fs:(%rax),%eax
   6256a:	mov    %eax,-0x5e4(%rbp)
   62570:	jmpq   62345 <_IO_vfscanf+0x5e25>
   62575:	mov    0x35d8ec(%rip),%rax        # 3bfe68 <_DYNAMIC+0x308>
   6257c:	mov    -0x5e4(%rbp),%esi
   62582:	mov    %esi,%fs:(%rax)
   62585:	jmpq   62345 <_IO_vfscanf+0x5e25>
   6258a:	mov    -0x6c0(%rbp),%r10d
   62591:	jmpq   624e8 <_IO_vfscanf+0x5fc8>
   62596:	mov    -0x6b0(%rbp),%rsi
   6259d:	mov    $0x2c,%edi
   625a2:	callq  10b900 <__towctrans>
   625a7:	mov    -0x628(%rbp),%rdi
   625ae:	test   %eax,%eax
   625b0:	mov    %eax,-0x548(%rbp)
   625b6:	setne  %al
   625b9:	and    %al,-0x6d0(%rbp)
   625bf:	mov    -0x698(%rbp),%rax
   625c6:	mov    0x28(%rdi),%esi
   625c9:	mov    -0x6b8(%rbp),%rdi
   625d0:	movq   $0x0,(%rax)
   625d7:	mov    %rax,%rdx
   625da:	callq  ac610 <c32rtomb>
   625df:	cmp    $0xffffffffffffffff,%rax
   625e3:	jne    62495 <_IO_vfscanf+0x5f75>
   625e9:	cmpb   $0x0,-0x6d0(%rbp)
   625f0:	mov    %rax,%rsi
   625f3:	mov    -0x6c0(%rbp),%r10d
   625fa:	je     62632 <_IO_vfscanf+0x6112>
   625fc:	mov    -0x620(%rbp),%rdi
   62603:	xor    %eax,%eax
   62605:	mov    %rsi,%rcx
   62608:	repnz scas %es:(%rdi),%al
   6260a:	not    %rcx
   6260d:	lea    -0x1(%rcx),%rax
   62611:	cmp    $0x10,%rax
   62615:	ja     62632 <_IO_vfscanf+0x6112>
   62617:	mov    -0x630(%rbp),%rax
   6261e:	mov    %ecx,%ecx
   62620:	mov    -0x620(%rbp),%rsi
   62627:	add    $0xaa,%rax
   6262d:	mov    %rax,%rdi
   62630:	rep movsb %ds:(%rsi),%es:(%rdi)
   62632:	mov    %r15,-0x698(%rbp)
   62639:	mov    %r10d,%r15d
   6263c:	mov    -0x450(%rbp),%rax
   62643:	test   %rax,%rax
   62646:	je     62a53 <_IO_vfscanf+0x6533>
   6264c:	cmpb   $0x0,-0x690(%rbp)
   62653:	je     629f5 <_IO_vfscanf+0x64d5>
   62659:	movzbl -0x688(%rbp),%edi
   62660:	cmp    -0x1(%rax),%dil
   62664:	je     62cd8 <_IO_vfscanf+0x67b8>
   6266a:	test   %r12d,%r12d
   6266d:	mov    $0x7fffffff,%ebx
   62672:	mov    -0x630(%rbp),%rcx
   62679:	cmovg  %r12d,%ebx
   6267d:	mov    %r12d,-0x6b0(%rbp)
   62684:	mov    %r13,%r12
   62687:	mov    %ebx,-0x6b8(%rbp)
   6268d:	xor    %ebx,%ebx
   6268f:	mov    %r14,%r13
   62692:	mov    %ebx,-0x628(%rbp)
   62698:	mov    %rcx,%rbx
   6269b:	movzbl (%rbx),%esi
   6269e:	cmp    %r15d,%esi
   626a1:	jne    62963 <_IO_vfscanf+0x6443>
   626a7:	cmpb   $0x0,0x1(%rbx)
   626ab:	lea    0x1(%rbx),%r14
   626af:	je     6296c <_IO_vfscanf+0x644c>
   626b5:	mov    -0x6b8(%rbp),%esi
   626bb:	jmp    626f6 <_IO_vfscanf+0x61d6>
   626bd:	nopl   (%rax)
   626c0:	lea    0x1(%rax),%rdx
   626c4:	mov    %rdx,0x8(%r12)
   626c9:	movzbl (%rax),%eax
   626cc:	movzbl (%r14),%r15d
   626d0:	add    $0x1,%r13
   626d4:	sub    $0x1,%esi
   626d7:	cmp    %eax,%r15d
   626da:	jne    6276a <_IO_vfscanf+0x624a>
   626e0:	add    $0x1,%r14
   626e4:	cmpb   $0x0,(%r14)
   626e8:	je     6282c <_IO_vfscanf+0x630c>
   626ee:	test   %esi,%esi
   626f0:	je     62777 <_IO_vfscanf+0x6257>
   626f6:	mov    0x8(%r12),%rax
   626fb:	cmp    0x10(%r12),%rax
   62700:	jb     626c0 <_IO_vfscanf+0x61a0>
   62702:	mov    %r12,%rdi
   62705:	mov    %esi,-0x6c0(%rbp)
   6270b:	callq  7d720 <__uflow>
   62710:	cmp    $0xffffffff,%eax
   62713:	mov    -0x6c0(%rbp),%esi
   62719:	jne    626cc <_IO_vfscanf+0x61ac>
   6271b:	mov    0x35d746(%rip),%rax        # 3bfe68 <_DYNAMIC+0x308>
   62722:	mov    $0xffffffff,%r15d
   62728:	mov    %fs:(%rax),%eax
   6272b:	mov    %eax,-0x5e4(%rbp)
   62731:	jmp    6276d <_IO_vfscanf+0x624d>
   62733:	pxor   %xmm0,%xmm0
   62737:	test   %r15d,%r15d
   6273a:	movaps %xmm0,-0x450(%rbp)
   62741:	jne    5dc52 <_IO_vfscanf+0x1732>
   62747:	mov    0x35d71a(%rip),%rax        # 3bfe68 <_DYNAMIC+0x308>
   6274e:	mov    %r13,%r15
   62751:	movl   $0xffffffff,-0x5e8(%rbp)
   6275b:	xor    %r13d,%r13d
   6275e:	movl   $0xc,%fs:(%rax)
   62765:	jmpq   5c9b8 <_IO_vfscanf+0x498>
   6276a:	mov    %eax,%r15d
   6276d:	cmpb   $0x0,(%r14)
   62771:	je     6282c <_IO_vfscanf+0x630c>
   62777:	cmp    %rbx,%r14
   6277a:	jbe    627d5 <_IO_vfscanf+0x62b5>
   6277c:	cmp    $0xffffffff,%r15d
   62780:	je     62792 <_IO_vfscanf+0x6272>
   62782:	movzbl %r15b,%esi
   62786:	mov    %r12,%rdi
   62789:	sub    $0x1,%r13
   6278d:	callq  7e5a0 <_IO_sputbackc>
   62792:	lea    -0x1(%r14),%r15
   62796:	cmp    %rbx,%r15
   62799:	jbe    627d1 <_IO_vfscanf+0x62b1>
   6279b:	mov    %r15,%r8
   6279e:	movzbl (%r8),%esi
   627a2:	mov    %r12,%rdi
   627a5:	mov    %r8,-0x6c0(%rbp)
   627ac:	callq  7e5a0 <_IO_sputbackc>
   627b1:	mov    -0x6c0(%rbp),%r8
   627b8:	sub    $0x1,%r8
   627bc:	cmp    %r8,%rbx
   627bf:	jne    6279e <_IO_vfscanf+0x627e>
   627c1:	mov    %rbx,%rax
   627c4:	sub    %r14,%rax
   627c7:	add    $0x1,%rax
   627cb:	add    %rax,%r15
   627ce:	add    %rax,%r13
   627d1:	movzbl (%r15),%r15d
   627d5:	addl   $0x1,-0x628(%rbp)
   627dc:	add    $0x11,%rbx
   627e0:	mov    -0x628(%rbp),%eax
   627e6:	cmp    $0xc,%eax
   627e9:	jne    6269b <_IO_vfscanf+0x617b>
   627ef:	mov    %r15d,%r10d
   627f2:	mov    -0x698(%rbp),%r15
   627f9:	mov    %r13,%r14
   627fc:	mov    %r12,%r13
   627ff:	cmp    $0xffffffff,%r10d
   62803:	je     624e8 <_IO_vfscanf+0x5fc8>
   62809:	movzbl %r10b,%esi
   6280d:	mov    %r13,%rdi
   62810:	mov    %r10d,-0x628(%rbp)
   62817:	sub    $0x1,%r14
   6281b:	callq  7e5a0 <_IO_sputbackc>
   62820:	mov    -0x628(%rbp),%r10d
   62827:	jmpq   624e8 <_IO_vfscanf+0x5fc8>
   6282c:	mov    %r13,%r14
   6282f:	mov    -0x628(%rbp),%ebx
   62835:	mov    %r12,%r13
   62838:	mov    -0x6b0(%rbp),%r12d
   6283f:	test   %r12d,%r12d
   62842:	cmovg  %esi,%r12d
   62846:	cmp    $0x9,%ebx
   62849:	jg     62919 <_IO_vfscanf+0x63f9>
   6284f:	mov    -0x450(%rbp),%rax
   62856:	cmp    -0x448(%rbp),%rax
   6285d:	lea    0x30(%rbx),%edx
   62860:	movzbl %dl,%esi
   62863:	je     62908 <_IO_vfscanf+0x63e8>
   62869:	lea    0x1(%rax),%rcx
   6286d:	mov    %rcx,-0x450(%rbp)
   62874:	mov    %dl,(%rax)
   62876:	test   %r12d,%r12d
   62879:	je     628f9 <_IO_vfscanf+0x63d9>
   6287b:	cmp    $0xffffffff,%r15d
   6287f:	je     628da <_IO_vfscanf+0x63ba>
   62881:	mov    0x8(%r13),%rax
   62885:	cmp    0x10(%r13),%rax
   62889:	jae    628ab <_IO_vfscanf+0x638b>
   6288b:	lea    0x1(%rax),%rdx
   6288f:	mov    %rdx,0x8(%r13)
   62893:	movzbl (%rax),%r15d
   62897:	xor    %eax,%eax
   62899:	add    $0x1,%r14
   6289d:	test   %r12d,%r12d
   628a0:	setg   %al
   628a3:	sub    %eax,%r12d
   628a6:	jmpq   6263c <_IO_vfscanf+0x611c>
   628ab:	mov    %r13,%rdi
   628ae:	callq  7d720 <__uflow>
   628b3:	cmp    $0xffffffff,%eax
   628b6:	mov    %eax,%r15d
   628b9:	jne    62897 <_IO_vfscanf+0x6377>
   628bb:	mov    %eax,%r10d
   628be:	mov    0x35d5a3(%rip),%rax        # 3bfe68 <_DYNAMIC+0x308>
   628c5:	mov    -0x698(%rbp),%r15
   628cc:	mov    %fs:(%rax),%eax
   628cf:	mov    %eax,-0x5e4(%rbp)
   628d5:	jmpq   624e8 <_IO_vfscanf+0x5fc8>
   628da:	mov    0x35d587(%rip),%rax        # 3bfe68 <_DYNAMIC+0x308>
   628e1:	mov    -0x5e4(%rbp),%esi
   628e7:	mov    %r15d,%r10d
   628ea:	mov    -0x698(%rbp),%r15
   628f1:	mov    %esi,%fs:(%rax)
   628f4:	jmpq   624e8 <_IO_vfscanf+0x5fc8>
   628f9:	mov    %r15d,%r10d
   628fc:	mov    -0x698(%rbp),%r15
   62903:	jmpq   624e8 <_IO_vfscanf+0x5fc8>
   62908:	mov    -0x610(%rbp),%rdi
   6290f:	callq  5c4c0 <char_buffer_add_slow>
   62914:	jmpq   62876 <_IO_vfscanf+0x6356>
   62919:	movzbl -0x678(%rbp),%eax
   62920:	xor    $0x1,%eax
   62923:	and    $0x1,%eax
   62926:	cmp    $0xb,%ebx
   62929:	jne    629a4 <_IO_vfscanf+0x6484>
   6292b:	test   %al,%al
   6292d:	je     629a4 <_IO_vfscanf+0x6484>
   6292f:	mov    -0x670(%rbp),%rbx
   62936:	movzbl (%rbx),%eax
   62939:	test   %al,%al
   6293b:	je     62998 <_IO_vfscanf+0x6478>
   6293d:	mov    -0x450(%rbp),%rdx
   62944:	cmp    -0x448(%rbp),%rdx
   6294b:	movsbl %al,%esi
   6294e:	je     6298a <_IO_vfscanf+0x646a>
   62950:	lea    0x1(%rdx),%rcx
   62954:	mov    %rcx,-0x450(%rbp)
   6295b:	mov    %al,(%rdx)
   6295d:	add    $0x1,%rbx
   62961:	jmp    62936 <_IO_vfscanf+0x6416>
   62963:	test   %sil,%sil
   62966:	jne    627d5 <_IO_vfscanf+0x62b5>
   6296c:	mov    %r13,%r14
   6296f:	mov    -0x628(%rbp),%ebx
   62975:	mov    %r12,%r13
   62978:	mov    -0x6b8(%rbp),%esi
   6297e:	mov    -0x6b0(%rbp),%r12d
   62985:	jmpq   6283f <_IO_vfscanf+0x631f>
   6298a:	mov    -0x610(%rbp),%rdi
   62991:	callq  5c4c0 <char_buffer_add_slow>
   62996:	jmp    6295d <_IO_vfscanf+0x643d>
   62998:	movb   $0x1,-0x678(%rbp)
   6299f:	jmpq   62876 <_IO_vfscanf+0x6356>
   629a4:	test   %al,-0x6c8(%rbp)
   629aa:	je     62d15 <_IO_vfscanf+0x67f5>
   629b0:	cmp    $0xa,%ebx
   629b3:	jne    62d15 <_IO_vfscanf+0x67f5>
   629b9:	mov    -0x620(%rbp),%rbx
   629c0:	movzbl (%rbx),%eax
   629c3:	test   %al,%al
   629c5:	je     62d09 <_IO_vfscanf+0x67e9>
   629cb:	mov    -0x450(%rbp),%rdx
   629d2:	cmp    -0x448(%rbp),%rdx
   629d9:	movsbl %al,%esi
   629dc:	je     62d24 <_IO_vfscanf+0x6804>
   629e2:	lea    0x1(%rdx),%rcx
   629e6:	mov    %rcx,-0x450(%rbp)
   629ed:	mov    %al,(%rdx)
   629ef:	add    $0x1,%rbx
   629f3:	jmp    629c0 <_IO_vfscanf+0x64a0>
   629f5:	cmp    -0x440(%rbp),%rax
   629fc:	je     6266a <_IO_vfscanf+0x614a>
   62a02:	mov    -0x5f8(%rbp),%rsi
   62a09:	movzbl %r15b,%edx
   62a0d:	movzbl -0x688(%rbp),%edi
   62a14:	mov    0x70(%rsi),%rcx
   62a18:	cmp    (%rcx,%rdx,4),%dil
   62a1c:	jne    6266a <_IO_vfscanf+0x614a>
   62a22:	cmp    -0x448(%rbp),%rax
   62a29:	je     62a7a <_IO_vfscanf+0x655a>
   62a2b:	movzbl -0x688(%rbp),%esi
   62a32:	lea    0x1(%rax),%rdx
   62a36:	movb   $0x1,-0x690(%rbp)
   62a3d:	movb   $0x1,-0x678(%rbp)
   62a44:	mov    %rdx,-0x450(%rbp)
   62a4b:	mov    %sil,(%rax)
   62a4e:	jmpq   62876 <_IO_vfscanf+0x6356>
   62a53:	mov    0x35d40e(%rip),%rax        # 3bfe68 <_DYNAMIC+0x308>
   62a5a:	mov    %r13,%r15
   62a5d:	movl   $0xffffffff,-0x5e8(%rbp)
   62a67:	mov    -0x600(%rbp),%r13d
   62a6e:	movl   $0xc,%fs:(%rax)
   62a75:	jmpq   5c9b8 <_IO_vfscanf+0x498>
   62a7a:	mov    -0x6a4(%rbp),%esi
   62a80:	mov    -0x610(%rbp),%rdi
   62a87:	callq  5c4c0 <char_buffer_add_slow>
   62a8c:	movb   $0x1,-0x690(%rbp)
   62a93:	movb   $0x1,-0x678(%rbp)
   62a9a:	jmpq   62876 <_IO_vfscanf+0x6356>
   62a9f:	mov    -0x620(%rbp),%r15
   62aa6:	jmpq   6071f <_IO_vfscanf+0x41ff>
   62aab:	xor    %eax,%eax
   62aad:	test   %r12d,%r12d
   62ab0:	movsbl %r10b,%esi
   62ab4:	setg   %al
   62ab7:	sub    %eax,%r12d
   62aba:	mov    -0x450(%rbp),%rax
   62ac1:	cmp    -0x448(%rbp),%rax
   62ac8:	je     639bf <_IO_vfscanf+0x749f>
   62ace:	lea    0x1(%rax),%rdx
   62ad2:	mov    %rdx,-0x450(%rbp)
   62ad9:	mov    %r10b,(%rax)
   62adc:	test   %r12d,%r12d
   62adf:	je     639b1 <_IO_vfscanf+0x7491>
   62ae5:	mov    0x8(%r13),%rax
   62ae9:	cmp    0x10(%r13),%rax
   62aed:	jae    63992 <_IO_vfscanf+0x7472>
   62af3:	lea    0x1(%rax),%rdx
   62af7:	mov    %rdx,0x8(%r13)
   62afb:	movzbl (%rax),%eax
   62afe:	mov    -0x5f8(%rbp),%rsi
   62b05:	movzbl %al,%edx
   62b08:	mov    0x70(%rsi),%rcx
   62b0c:	cmpl   $0x6e,(%rcx,%rdx,4)
   62b10:	jne    63984 <_IO_vfscanf+0x7464>
   62b16:	xor    %edx,%edx
   62b18:	test   %r12d,%r12d
   62b1b:	movsbl %al,%esi
   62b1e:	setg   %dl
   62b21:	sub    %edx,%r12d
   62b24:	mov    -0x450(%rbp),%rdx
   62b2b:	cmp    -0x448(%rbp),%rdx
   62b32:	je     63973 <_IO_vfscanf+0x7453>
   62b38:	lea    0x1(%rdx),%rcx
   62b3c:	mov    %rcx,-0x450(%rbp)
   62b43:	mov    %al,(%rdx)
   62b45:	test   %r12d,%r12d
   62b48:	je     63965 <_IO_vfscanf+0x7445>
   62b4e:	mov    0x8(%r13),%rax
   62b52:	cmp    0x10(%r13),%rax
   62b56:	jae    63946 <_IO_vfscanf+0x7426>
   62b5c:	lea    0x1(%rax),%rdx
   62b60:	mov    %rdx,0x8(%r13)
   62b64:	movzbl (%rax),%eax
   62b67:	mov    -0x5f8(%rbp),%rdi
   62b6e:	movzbl %al,%edx
   62b71:	mov    0x70(%rdi),%rcx
   62b75:	cmpl   $0x69,(%rcx,%rdx,4)
   62b79:	jne    63938 <_IO_vfscanf+0x7418>
   62b7f:	xor    %edx,%edx
   62b81:	test   %r12d,%r12d
   62b84:	movsbl %al,%esi
   62b87:	setg   %dl
   62b8a:	sub    %edx,%r12d
   62b8d:	mov    -0x450(%rbp),%rdx
   62b94:	cmp    -0x448(%rbp),%rdx
   62b9b:	je     63927 <_IO_vfscanf+0x7407>
   62ba1:	lea    0x1(%rdx),%rcx
   62ba5:	mov    %rcx,-0x450(%rbp)
   62bac:	mov    %al,(%rdx)
   62bae:	test   %r12d,%r12d
   62bb1:	je     63919 <_IO_vfscanf+0x73f9>
   62bb7:	mov    0x8(%r13),%rax
   62bbb:	cmp    0x10(%r13),%rax
   62bbf:	jae    638fa <_IO_vfscanf+0x73da>
   62bc5:	lea    0x1(%rax),%rdx
   62bc9:	mov    %rdx,0x8(%r13)
   62bcd:	movzbl (%rax),%eax
   62bd0:	mov    -0x5f8(%rbp),%rsi
   62bd7:	movzbl %al,%edx
   62bda:	mov    0x70(%rsi),%rcx
   62bde:	cmpl   $0x74,(%rcx,%rdx,4)
   62be2:	jne    638ec <_IO_vfscanf+0x73cc>
   62be8:	xor    %edx,%edx
   62bea:	test   %r12d,%r12d
   62bed:	movsbl %al,%esi
   62bf0:	setg   %dl
   62bf3:	sub    %edx,%r12d
   62bf6:	mov    -0x450(%rbp),%rdx
   62bfd:	cmp    -0x448(%rbp),%rdx
   62c04:	je     638cd <_IO_vfscanf+0x73ad>
   62c0a:	lea    0x1(%rdx),%rcx
   62c0e:	mov    %rcx,-0x450(%rbp)
   62c15:	mov    %al,(%rdx)
   62c17:	test   %r12d,%r12d
   62c1a:	je     638bf <_IO_vfscanf+0x739f>
   62c20:	mov    0x8(%r13),%rax
   62c24:	cmp    0x10(%r13),%rax
   62c28:	jae    638a6 <_IO_vfscanf+0x7386>
   62c2e:	lea    0x1(%rax),%rdx
   62c32:	add    $0x7,%r14
   62c36:	mov    %rdx,0x8(%r13)
   62c3a:	movzbl (%rax),%r10d
   62c3e:	mov    -0x5f8(%rbp),%rdi
   62c45:	movzbl %r10b,%eax
   62c49:	mov    0x70(%rdi),%rdx
   62c4d:	cmpl   $0x79,(%rdx,%rax,4)
   62c51:	jne    63898 <_IO_vfscanf+0x7378>
   62c57:	mov    -0x450(%rbp),%rax
   62c5e:	cmp    -0x448(%rbp),%rax
   62c65:	movsbl %r10b,%esi
   62c69:	jne    5fa80 <_IO_vfscanf+0x3560>
   62c6f:	mov    -0x610(%rbp),%rdi
   62c76:	mov    %r10d,-0x600(%rbp)
   62c7d:	callq  5c4c0 <char_buffer_add_slow>
   62c82:	mov    -0x450(%rbp),%rax
   62c89:	mov    -0x600(%rbp),%r10d
   62c90:	jmpq   5eb27 <_IO_vfscanf+0x2607>
   62c95:	add    $0x8,%rsi
   62c99:	mov    $0x1,%r12d
   62c9f:	jmpq   61cce <_IO_vfscanf+0x57ae>
   62ca4:	test   %bl,%bl
   62ca6:	je     62cb0 <_IO_vfscanf+0x6790>
   62ca8:	mov    %edi,-0x520(%rbp)
   62cae:	mov    %edi,%eax
   62cb0:	test   %r12b,%r12b
   62cb3:	je     62cbc <_IO_vfscanf+0x679c>
   62cb5:	mov    %rsi,-0x518(%rbp)
   62cbc:	cmp    $0x2f,%eax
   62cbf:	ja     62d35 <_IO_vfscanf+0x6815>
   62cc1:	mov    %eax,%esi
   62cc3:	add    $0x8,%eax
   62cc6:	add    -0x510(%rbp),%rsi
   62ccd:	mov    %eax,-0x520(%rbp)
   62cd3:	jmpq   60cb0 <_IO_vfscanf+0x4790>
   62cd8:	lea    -0x2b(%r15),%edx
   62cdc:	and    $0xfffffffd,%edx
   62cdf:	jne    6266a <_IO_vfscanf+0x614a>
   62ce5:	cmp    -0x448(%rbp),%rax
   62cec:	movsbl %r15b,%esi
   62cf0:	je     62908 <_IO_vfscanf+0x63e8>
   62cf6:	lea    0x1(%rax),%rdx
   62cfa:	mov    %rdx,-0x450(%rbp)
   62d01:	mov    %r15b,(%rax)
   62d04:	jmpq   62876 <_IO_vfscanf+0x6356>
   62d09:	movb   $0x0,-0x678(%rbp)
   62d10:	jmpq   62876 <_IO_vfscanf+0x6356>
   62d15:	mov    %r15d,%r10d
   62d18:	mov    -0x698(%rbp),%r15
   62d1f:	jmpq   627ff <_IO_vfscanf+0x62df>
   62d24:	mov    -0x610(%rbp),%rdi
   62d2b:	callq  5c4c0 <char_buffer_add_slow>
   62d30:	jmpq   629ef <_IO_vfscanf+0x64cf>
   62d35:	mov    -0x518(%rbp),%rsi
   62d3c:	lea    0x8(%rsi),%rax
   62d40:	mov    %rax,-0x518(%rbp)
   62d47:	jmpq   60cb0 <_IO_vfscanf+0x4790>
   62d4c:	mov    -0x600(%rbp),%eax
   62d52:	xor    %ebx,%ebx
   62d54:	movl   $0x30,-0x678(%rbp)
   62d5e:	mov    %r15,-0x688(%rbp)
   62d65:	mov    %r12d,-0x690(%rbp)
   62d6c:	mov    %r10d,-0x6a4(%rbp)
   62d73:	mov    %r13,-0x6b8(%rbp)
   62d7a:	mov    %eax,-0x6b0(%rbp)
   62d80:	lea    -0x570(%rbp),%rax
   62d87:	mov    %rax,-0x628(%rbp)
   62d8e:	lea    -0x5d0(%rbp),%rax
   62d95:	mov    %rax,-0x6c0(%rbp)
   62d9c:	lea    -0x5c0(%rbp),%rax
   62da3:	mov    %rax,-0x698(%rbp)
   62daa:	mov    -0x648(%rbp),%rax
   62db1:	mov    -0x6a0(%rbp),%rsi
   62db8:	mov    -0x678(%rbp),%edi
   62dbe:	mov    0xe0(%rax,%rbx,1),%r15
   62dc6:	mov    -0x628(%rbp),%rax
   62dcd:	mov    %r15,(%rax,%rbx,1)
   62dd1:	callq  10b900 <__towctrans>
   62dd6:	mov    -0x6c0(%rbp),%rsi
   62ddd:	mov    -0x698(%rbp),%rdi
   62de4:	movq   $0x0,(%rsi)
   62deb:	mov    %rsi,%rdx
   62dee:	mov    %eax,%esi
   62df0:	callq  ac610 <c32rtomb>
   62df5:	cmp    $0xffffffffffffffff,%rax
   62df9:	mov    %rax,%r12
   62dfc:	je     62ebc <_IO_vfscanf+0x699c>
   62e02:	mov    -0x600(%rbp),%r9d
   62e09:	xor    %r13d,%r13d
   62e0c:	mov    %r15,%rdi
   62e0f:	test   %r9d,%r9d
   62e12:	jle    62e2c <_IO_vfscanf+0x690c>
   62e14:	xor    %esi,%esi
   62e16:	add    $0x1,%r13d
   62e1a:	callq  97340 <__rawmemchr>
   62e1f:	cmp    -0x600(%rbp),%r13d
   62e26:	lea    0x1(%rax),%rdi
   62e2a:	jne    62e14 <_IO_vfscanf+0x68f4>
   62e2c:	sub    %r15,%rdi
   62e2f:	mov    %r15,%rsi
   62e32:	add    $0x8,%rbx
   62e36:	lea    0x1f(%r12,%rdi,1),%rax
   62e3b:	mov    %rdi,%rdx
   62e3e:	and    $0xfffffffffffffff0,%rax
   62e42:	sub    %rax,%rsp
   62e45:	lea    0xf(%rsp),%rcx
   62e4a:	and    $0xfffffffffffffff0,%rcx
   62e4e:	mov    %rcx,%rdi
   62e51:	mov    %rcx,-0x6c8(%rbp)
   62e58:	callq  90920 <__GI___mempcpy>
   62e5d:	mov    -0x698(%rbp),%rsi
   62e64:	mov    %r12,%rdx
   62e67:	mov    %rax,%rdi
   62e6a:	callq  90920 <__GI___mempcpy>
   62e6f:	mov    -0x6c8(%rbp),%rcx
   62e76:	movb   $0x0,(%rax)
   62e79:	mov    -0x630(%rbp),%rax
   62e80:	addl   $0x1,-0x678(%rbp)
   62e87:	mov    %rcx,-0x8(%rbx,%rax,1)
   62e8c:	mov    -0x678(%rbp),%eax
   62e92:	cmp    $0x3a,%eax
   62e95:	jne    62daa <_IO_vfscanf+0x688a>
   62e9b:	mov    -0x688(%rbp),%r15
   62ea2:	mov    -0x690(%rbp),%r12d
   62ea9:	mov    -0x6a4(%rbp),%r10d
   62eb0:	mov    -0x6b8(%rbp),%r13
   62eb7:	jmpq   600c6 <_IO_vfscanf+0x3ba6>
   62ebc:	mov    -0x688(%rbp),%r15
   62ec3:	mov    -0x690(%rbp),%r12d
   62eca:	mov    -0x6a4(%rbp),%r10d
   62ed1:	mov    -0x6b8(%rbp),%r13
   62ed8:	movq   $0x0,-0x6a0(%rbp)
   62ee3:	jmpq   600c6 <_IO_vfscanf+0x3ba6>
   62ee8:	mov    -0x6a4(%rbp),%esi
   62eee:	mov    -0x610(%rbp),%rdi
   62ef5:	callq  5c4c0 <char_buffer_add_slow>
   62efa:	movzbl -0x628(%rbp),%eax
   62f01:	mov    %al,-0x690(%rbp)
   62f07:	mov    %al,-0x678(%rbp)
   62f0d:	jmpq   5eaad <_IO_vfscanf+0x258d>
   62f12:	mov    %r13,%r15
   62f15:	mov    $0x2,%r13d
   62f1b:	jmpq   5c9b8 <_IO_vfscanf+0x498>
   62f20:	mov    -0x5a0(%rbp),%rax
   62f27:	lea    0x8(%rax),%rcx
   62f2b:	mov    %rcx,-0x5a0(%rbp)
   62f32:	jmpq   5f0b1 <_IO_vfscanf+0x2b91>
   62f37:	movl   $0x70,-0x6a4(%rbp)
   62f41:	movb   $0x70,-0x688(%rbp)
   62f48:	xor    %edx,%edx
   62f4a:	jmpq   5dbd2 <_IO_vfscanf+0x16b2>
   62f4f:	mov    %r13,%rdi
   62f52:	callq  7d720 <__uflow>
   62f57:	cmp    $0xffffffff,%eax
   62f5a:	mov    %eax,%r10d
   62f5d:	jne    619e7 <_IO_vfscanf+0x54c7>
   62f63:	mov    0x35cefe(%rip),%rax        # 3bfe68 <_DYNAMIC+0x308>
   62f6a:	mov    %fs:(%rax),%eax
   62f6d:	mov    %eax,-0x5e4(%rbp)
   62f73:	jmpq   619eb <_IO_vfscanf+0x54cb>
   62f78:	mov    0x35cee9(%rip),%rax        # 3bfe68 <_DYNAMIC+0x308>
   62f7f:	mov    -0x5e4(%rbp),%edi
   62f85:	mov    %edi,%fs:(%rax)
   62f88:	jmpq   619eb <_IO_vfscanf+0x54cb>
   62f8d:	mov    -0x610(%rbp),%rdi
   62f94:	movsbl %r10b,%esi
   62f98:	mov    %r10d,-0x600(%rbp)
   62f9f:	callq  5c4c0 <char_buffer_add_slow>
   62fa4:	mov    -0x600(%rbp),%r10d
   62fab:	jmpq   619b2 <_IO_vfscanf+0x5492>
   62fb0:	mov    %r13,%r15
   62fb3:	mov    $0x2,%r13d
   62fb9:	jmpq   5c9b8 <_IO_vfscanf+0x498>
   62fbe:	mov    -0x5a0(%rbp),%rax
   62fc5:	lea    0x8(%rax),%rdx
   62fc9:	mov    %rdx,-0x5a0(%rbp)
   62fd0:	jmpq   5d40a <_IO_vfscanf+0xeea>
   62fd5:	mov    -0x608(%rbp),%r15
   62fdc:	lea    0x4(%rdx),%rsi
   62fe0:	addq   $0x1,-0x658(%rbp)
   62fe8:	mov    (%r15),%rdi
   62feb:	callq  1f990 <*ABS*+0x911b0@plt+0x10>
   62ff0:	test   %rax,%rax
   62ff3:	je     63016 <_IO_vfscanf+0x6af6>
   62ff5:	mov    -0x640(%rbp),%rdx
   62ffc:	mov    %rax,(%r15)
   62fff:	add    %rdx,%rax
   63002:	mov    %rax,-0x640(%rbp)
   63009:	jmpq   5d334 <_IO_vfscanf+0xe14>
   6300e:	mov    %r13,%r15
   63011:	jmpq   5e82e <_IO_vfscanf+0x230e>
   63016:	mov    %r13,%r15
   63019:	movl   $0xffffffff,-0x5e8(%rbp)
   63023:	mov    -0x600(%rbp),%r13d
   6302a:	jmpq   5c9b8 <_IO_vfscanf+0x498>
   6302f:	mov    -0x5a0(%rbp),%rax
   63036:	lea    0x8(%rax),%rcx
   6303a:	mov    %rcx,-0x5a0(%rbp)
   63041:	jmpq   60bb1 <_IO_vfscanf+0x4691>
   63046:	mov    (%r12),%rdi
   6304a:	add    $0x1,%rbx
   6304e:	mov    %r10d,-0x658(%rbp)
   63055:	mov    %rbx,%rsi
   63058:	mov    %rcx,-0x638(%rbp)
   6305f:	callq  1f990 <*ABS*+0x911b0@plt+0x10>
   63064:	test   %rax,%rax
   63067:	je     630b7 <_IO_vfscanf+0x6b97>
   63069:	mov    -0x638(%rbp),%rcx
   63070:	mov    %rax,(%r12)
   63074:	mov    -0x658(%rbp),%r10d
   6307b:	add    %rcx,%rax
   6307e:	jmpq   60d93 <_IO_vfscanf+0x4873>
   63083:	mov    -0x610(%rbp),%rdi
   6308a:	movsbl %r12b,%esi
   6308e:	callq  5c4c0 <char_buffer_add_slow>
   63093:	movb   $0x1,-0x628(%rbp)
   6309a:	jmpq   5eaad <_IO_vfscanf+0x258d>
   6309f:	mov    %r12,%rdx
   630a2:	mov    %ebx,%r10d
   630a5:	mov    %r15d,%r12d
   630a8:	mov    %rax,%rbx
   630ab:	mov    -0x6a0(%rbp),%r15
   630b2:	jmpq   5e49e <_IO_vfscanf+0x1f7e>
   630b7:	mov    %r13,%r15
   630ba:	movl   $0xffffffff,-0x5e8(%rbp)
   630c4:	xor    %r13d,%r13d
   630c7:	jmpq   5c9b8 <_IO_vfscanf+0x498>
   630cc:	add    $0x8,%rdx
   630d0:	mov    $0x1,%esi
   630d5:	jmpq   5ff15 <_IO_vfscanf+0x39f5>
   630da:	test   %dil,%dil
   630dd:	je     630e7 <_IO_vfscanf+0x6bc7>
   630df:	mov    %ecx,-0x520(%rbp)
   630e5:	mov    %ecx,%eax
   630e7:	test   %sil,%sil
   630ea:	je     630f3 <_IO_vfscanf+0x6bd3>
   630ec:	mov    %rdx,-0x518(%rbp)
   630f3:	cmp    $0x2f,%eax
   630f6:	ja     6315c <_IO_vfscanf+0x6c3c>
   630f8:	mov    %eax,%edx
   630fa:	add    -0x510(%rbp),%rdx
   63101:	add    $0x8,%eax
   63104:	mov    %eax,-0x520(%rbp)
   6310a:	mov    (%rdx),%rax
   6310d:	mov    %rax,-0x640(%rbp)
   63114:	jmpq   5f589 <_IO_vfscanf+0x3069>
   63119:	add    $0x8,%rsi
   6311d:	mov    $0x1,%r12d
   63123:	jmpq   61966 <_IO_vfscanf+0x5446>
   63128:	test   %bl,%bl
   6312a:	je     63134 <_IO_vfscanf+0x6c14>
   6312c:	mov    %edi,-0x520(%rbp)
   63132:	mov    %edi,%eax
   63134:	test   %r12b,%r12b
   63137:	je     63140 <_IO_vfscanf+0x6c20>
   63139:	mov    %rsi,-0x518(%rbp)
   63140:	cmp    $0x2f,%eax
   63143:	ja     63170 <_IO_vfscanf+0x6c50>
   63145:	mov    %eax,%esi
   63147:	add    $0x8,%eax
   6314a:	add    -0x510(%rbp),%rsi
   63151:	mov    %eax,-0x520(%rbp)
   63157:	jmpq   5ebe6 <_IO_vfscanf+0x26c6>
   6315c:	mov    -0x518(%rbp),%rdx
   63163:	lea    0x8(%rdx),%rax
   63167:	mov    %rax,-0x518(%rbp)
   6316e:	jmp    6310a <_IO_vfscanf+0x6bea>
   63170:	mov    -0x518(%rbp),%rsi
   63177:	lea    0x8(%rsi),%rax
   6317b:	mov    %rax,-0x518(%rbp)
   63182:	jmpq   5ebe6 <_IO_vfscanf+0x26c6>
   63187:	mov    %r13,%r15
   6318a:	mov    $0x2,%r13d
   63190:	jmpq   5c9b8 <_IO_vfscanf+0x498>
   63195:	mov    -0x5a0(%rbp),%rax
   6319c:	lea    0x8(%rax),%rcx
   631a0:	mov    %rcx,-0x5a0(%rbp)
   631a7:	jmpq   5d5ec <_IO_vfscanf+0x10cc>
   631ac:	add    $0x8,%rcx
   631b0:	mov    $0x1,%ebx
   631b5:	jmpq   615da <_IO_vfscanf+0x50ba>
   631ba:	test   %dil,%dil
   631bd:	je     631c7 <_IO_vfscanf+0x6ca7>
   631bf:	mov    %esi,-0x520(%rbp)
   631c5:	mov    %esi,%eax
   631c7:	test   %bl,%bl
   631c9:	je     631d2 <_IO_vfscanf+0x6cb2>
   631cb:	mov    %rcx,-0x518(%rbp)
   631d2:	cmp    $0x2f,%eax
   631d5:	ja     632ae <_IO_vfscanf+0x6d8e>
   631db:	mov    %eax,%ecx
   631dd:	add    -0x510(%rbp),%rcx
   631e4:	add    $0x8,%eax
   631e7:	mov    %eax,-0x520(%rbp)
   631ed:	mov    (%rcx),%rax
   631f0:	mov    %rax,-0x668(%rbp)
   631f7:	jmpq   60bbb <_IO_vfscanf+0x469b>
   631fc:	add    $0x1,%rbx
   63200:	jmpq   5e8b8 <_IO_vfscanf+0x2398>
   63205:	mov    -0x678(%rbp),%r15
   6320c:	mov    %ebx,%r10d
   6320f:	jmpq   61d94 <_IO_vfscanf+0x5874>
   63214:	movl   $0xffffffff,-0x5e8(%rbp)
   6321e:	jmpq   5c9b8 <_IO_vfscanf+0x498>
   63223:	add    $0x8,%rdx
   63227:	mov    $0x1,%esi
   6322c:	jmpq   5fcd1 <_IO_vfscanf+0x37b1>
   63231:	test   %dil,%dil
   63234:	je     6323e <_IO_vfscanf+0x6d1e>
   63236:	mov    %ecx,-0x520(%rbp)
   6323c:	mov    %ecx,%eax
   6323e:	test   %sil,%sil
   63241:	je     6324a <_IO_vfscanf+0x6d2a>
   63243:	mov    %rdx,-0x518(%rbp)
   6324a:	cmp    $0x2f,%eax
   6324d:	ja     632fe <_IO_vfscanf+0x6dde>
   63253:	mov    %eax,%edx
   63255:	add    -0x510(%rbp),%rdx
   6325c:	add    $0x8,%eax
   6325f:	mov    %eax,-0x520(%rbp)
   63265:	mov    (%rdx),%rax
   63268:	mov    %rax,-0x608(%rbp)
   6326f:	mov    %rax,%rbx
   63272:	jmpq   5d1f1 <_IO_vfscanf+0xcd1>
   63277:	add    $0x8,%rcx
   6327b:	mov    $0x1,%edi
   63280:	jmpq   61702 <_IO_vfscanf+0x51e2>
   63285:	mov    %r13,%rdi
   63288:	callq  7d720 <__uflow>
   6328d:	cmp    $0xffffffff,%eax
   63290:	mov    %eax,%r10d
   63293:	jne    5db92 <_IO_vfscanf+0x1672>
   63299:	mov    0x35cbc8(%rip),%rax        # 3bfe68 <_DYNAMIC+0x308>
   632a0:	mov    %fs:(%rax),%eax
   632a3:	mov    %eax,-0x5e4(%rbp)
   632a9:	jmpq   5db96 <_IO_vfscanf+0x1676>
   632ae:	mov    -0x518(%rbp),%rcx
   632b5:	lea    0x8(%rcx),%rax
   632b9:	mov    %rax,-0x518(%rbp)
   632c0:	jmpq   631ed <_IO_vfscanf+0x6ccd>
   632c5:	test   %bl,%bl
   632c7:	je     632d1 <_IO_vfscanf+0x6db1>
   632c9:	mov    %esi,-0x520(%rbp)
   632cf:	mov    %esi,%edx
   632d1:	test   %dil,%dil
   632d4:	je     632dd <_IO_vfscanf+0x6dbd>
   632d6:	mov    %rcx,-0x518(%rbp)
   632dd:	cmp    $0x2f,%edx
   632e0:	ja     63315 <_IO_vfscanf+0x6df5>
   632e2:	mov    %edx,%ecx
   632e4:	add    -0x510(%rbp),%rcx
   632eb:	add    $0x8,%edx
   632ee:	mov    %edx,-0x520(%rbp)
   632f4:	mov    (%rcx),%rdx
   632f7:	mov    %al,(%rdx)
   632f9:	jmpq   5da60 <_IO_vfscanf+0x1540>
   632fe:	mov    -0x518(%rbp),%rdx
   63305:	lea    0x8(%rdx),%rax
   63309:	mov    %rax,-0x518(%rbp)
   63310:	jmpq   63265 <_IO_vfscanf+0x6d45>
   63315:	mov    -0x518(%rbp),%rcx
   6331c:	lea    0x8(%rcx),%rdx
   63320:	mov    %rdx,-0x518(%rbp)
   63327:	jmp    632f4 <_IO_vfscanf+0x6dd4>
   63329:	mov    -0x5a0(%rbp),%rdx
   63330:	lea    0x8(%rdx),%rcx
   63334:	mov    %rcx,-0x5a0(%rbp)
   6333b:	jmpq   5f85a <_IO_vfscanf+0x333a>
   63340:	add    $0x8,%rdx
   63344:	mov    $0x1,%esi
   63349:	jmpq   6135b <_IO_vfscanf+0x4e3b>
   6334e:	test   %dil,%dil
   63351:	je     6335b <_IO_vfscanf+0x6e3b>
   63353:	mov    %ecx,-0x520(%rbp)
   63359:	mov    %ecx,%eax
   6335b:	test   %sil,%sil
   6335e:	je     63367 <_IO_vfscanf+0x6e47>
   63360:	mov    %rdx,-0x518(%rbp)
   63367:	cmp    $0x2f,%eax
   6336a:	ja     633fc <_IO_vfscanf+0x6edc>
   63370:	mov    %eax,%edx
   63372:	add    -0x510(%rbp),%rdx
   63379:	add    $0x8,%eax
   6337c:	mov    %eax,-0x520(%rbp)
   63382:	mov    (%rdx),%rax
   63385:	jmpq   5f8a4 <_IO_vfscanf+0x3384>
   6338a:	mov    -0x5a0(%rbp),%rax
   63391:	lea    0x8(%rax),%rdx
   63395:	mov    %rdx,-0x5a0(%rbp)
   6339c:	jmpq   5f57f <_IO_vfscanf+0x305f>
   633a1:	add    $0x8,%rdx
   633a5:	mov    $0x1,%esi
   633aa:	jmpq   61586 <_IO_vfscanf+0x5066>
   633af:	test   %dil,%dil
   633b2:	je     633bc <_IO_vfscanf+0x6e9c>
   633b4:	mov    %ecx,-0x520(%rbp)
   633ba:	mov    %ecx,%eax
   633bc:	test   %sil,%sil
   633bf:	je     633c8 <_IO_vfscanf+0x6ea8>
   633c1:	mov    %rdx,-0x518(%rbp)
   633c8:	cmp    $0x2f,%eax
   633cb:	ja     63413 <_IO_vfscanf+0x6ef3>
   633cd:	mov    %eax,%edx
   633cf:	add    -0x510(%rbp),%rdx
   633d6:	add    $0x8,%eax
   633d9:	mov    %eax,-0x520(%rbp)
   633df:	mov    (%rdx),%rax
   633e2:	mov    %rax,-0x608(%rbp)
   633e9:	jmpq   5d414 <_IO_vfscanf+0xef4>
   633ee:	mov    %r13,%r15
   633f1:	mov    $0x2,%r13d
   633f7:	jmpq   5c9b8 <_IO_vfscanf+0x498>
   633fc:	mov    -0x518(%rbp),%rdx
   63403:	lea    0x8(%rdx),%rax
   63407:	mov    %rax,-0x518(%rbp)
   6340e:	jmpq   63382 <_IO_vfscanf+0x6e62>
   63413:	mov    -0x518(%rbp),%rdx
   6341a:	lea    0x8(%rdx),%rax
   6341e:	mov    %rax,-0x518(%rbp)
   63425:	jmp    633df <_IO_vfscanf+0x6ebf>
   63427:	mov    -0x658(%rbp),%rax
   6342e:	lea    0x0(,%rax,8),%rsi
   63436:	callq  1f990 <*ABS*+0x911b0@plt+0x10>
   6343b:	test   %rax,%rax
   6343e:	je     6347d <_IO_vfscanf+0x6f5d>
   63440:	mov    -0x608(%rbp),%rdi
   63447:	mov    -0x658(%rbp),%rsi
   6344e:	mov    %rax,(%rdi)
   63451:	add    %rbx,%rax
   63454:	mov    %rax,-0x640(%rbp)
   6345b:	mov    %rsi,%rax
   6345e:	add    %rsi,%rax
   63461:	mov    %rax,-0x658(%rbp)
   63468:	jmpq   5ed70 <_IO_vfscanf+0x2850>
   6346d:	fstp   %st(0)
   6346f:	mov    %r13,%r15
   63472:	mov    $0x2,%r13d
   63478:	jmpq   5c9b8 <_IO_vfscanf+0x498>
   6347d:	mov    -0x608(%rbp),%rax
   63484:	lea    0x4(%rbx),%rsi
   63488:	addq   $0x1,-0x658(%rbp)
   63490:	mov    (%rax),%rdi
   63493:	callq  1f990 <*ABS*+0x911b0@plt+0x10>
   63498:	test   %rax,%rax
   6349b:	je     63502 <_IO_vfscanf+0x6fe2>
   6349d:	mov    -0x608(%rbp),%rsi
   634a4:	mov    %rax,(%rsi)
   634a7:	add    %rbx,%rax
   634aa:	mov    %rax,-0x640(%rbp)
   634b1:	jmpq   5ed70 <_IO_vfscanf+0x2850>
   634b6:	add    $0x8,%rcx
   634ba:	mov    $0x1,%ebx
   634bf:	jmpq   61752 <_IO_vfscanf+0x5232>
   634c4:	test   %dil,%dil
   634c7:	je     634d1 <_IO_vfscanf+0x6fb1>
   634c9:	mov    %esi,-0x520(%rbp)
   634cf:	mov    %esi,%eax
   634d1:	test   %bl,%bl
   634d3:	je     634dc <_IO_vfscanf+0x6fbc>
   634d5:	mov    %rcx,-0x518(%rbp)
   634dc:	cmp    $0x2f,%eax
   634df:	ja     6354b <_IO_vfscanf+0x702b>
   634e1:	mov    %eax,%ecx
   634e3:	add    -0x510(%rbp),%rcx
   634ea:	add    $0x8,%eax
   634ed:	mov    %eax,-0x520(%rbp)
   634f3:	mov    (%rcx),%rax
   634f6:	mov    %rax,-0x640(%rbp)
   634fd:	jmpq   60eaa <_IO_vfscanf+0x498a>
   63502:	mov    -0x5ec(%rbp),%r12d
   63509:	mov    %r13,%r15
   6350c:	mov    -0x600(%rbp),%r13d
   63513:	and    $0x2000,%r12d
   6351a:	jne    6355f <_IO_vfscanf+0x703f>
   6351c:	mov    -0x608(%rbp),%rax
   63523:	addl   $0x1,-0x5e8(%rbp)
   6352a:	mov    $0x2,%r13d
   63530:	movq   $0x0,-0x608(%rbp)
   6353b:	mov    (%rax),%rax
   6353e:	movl   $0x0,-0x4(%rax,%rbx,1)
   63546:	jmpq   5c9b8 <_IO_vfscanf+0x498>
   6354b:	mov    -0x518(%rbp),%rcx
   63552:	lea    0x8(%rcx),%rax
   63556:	mov    %rax,-0x518(%rbp)
   6355d:	jmp    634f3 <_IO_vfscanf+0x6fd3>
   6355f:	movl   $0xffffffff,-0x5e8(%rbp)
   63569:	jmpq   5c9b8 <_IO_vfscanf+0x498>
   6356e:	add    $0x8,%rcx
   63572:	mov    $0x1,%ebx
   63577:	jmpq   611d6 <_IO_vfscanf+0x4cb6>
   6357c:	test   %dil,%dil
   6357f:	je     63589 <_IO_vfscanf+0x7069>
   63581:	mov    %esi,-0x520(%rbp)
   63587:	mov    %esi,%eax
   63589:	test   %bl,%bl
   6358b:	je     63594 <_IO_vfscanf+0x7074>
   6358d:	mov    %rcx,-0x518(%rbp)
   63594:	cmp    $0x2f,%eax
   63597:	ja     635e2 <_IO_vfscanf+0x70c2>
   63599:	mov    %eax,%ecx
   6359b:	add    -0x510(%rbp),%rcx
   635a2:	add    $0x8,%eax
   635a5:	mov    %eax,-0x520(%rbp)
   635ab:	mov    (%rcx),%rax
   635ae:	mov    %rax,-0x608(%rbp)
   635b5:	mov    %rax,%rbx
   635b8:	jmpq   5f0be <_IO_vfscanf+0x2b9e>
   635bd:	mov    -0x5a0(%rbp),%rdx
   635c4:	lea    0x8(%rdx),%rcx
   635c8:	mov    %rcx,-0x5a0(%rbp)
   635cf:	jmpq   5da5a <_IO_vfscanf+0x153a>
   635d4:	add    $0x8,%rcx
   635d8:	mov    $0x1,%edi
   635dd:	jmpq   613aa <_IO_vfscanf+0x4e8a>
   635e2:	mov    -0x518(%rbp),%rcx
   635e9:	lea    0x8(%rcx),%rax
   635ed:	mov    %rax,-0x518(%rbp)
   635f4:	jmp    635ab <_IO_vfscanf+0x708b>
   635f6:	mov    -0x5a0(%rbp),%rax
   635fd:	lea    0x8(%rax),%rdx
   63601:	mov    %rdx,-0x5a0(%rbp)
   63608:	jmpq   60c07 <_IO_vfscanf+0x46e7>
   6360d:	mov    %r13,%rdi
   63610:	callq  7d720 <__uflow>
   63615:	cmp    $0xffffffff,%eax
   63618:	jne    5fd34 <_IO_vfscanf+0x3814>
   6361e:	mov    %r13,%r15
   63621:	mov    $0x2,%r13d
   63627:	jmpq   5c9b8 <_IO_vfscanf+0x498>
   6362c:	add    $0x8,%rsi
   63630:	mov    $0x1,%r12d
   63636:	jmpq   61c7e <_IO_vfscanf+0x575e>
   6363b:	test   %bl,%bl
   6363d:	je     63647 <_IO_vfscanf+0x7127>
   6363f:	mov    %edi,-0x520(%rbp)
   63645:	mov    %edi,%eax
   63647:	test   %r12b,%r12b
   6364a:	je     63653 <_IO_vfscanf+0x7133>
   6364c:	mov    %rsi,-0x518(%rbp)
   63653:	cmp    $0x2f,%eax
   63656:	ja     636a5 <_IO_vfscanf+0x7185>
   63658:	mov    %eax,%esi
   6365a:	add    $0x8,%eax
   6365d:	add    -0x510(%rbp),%rsi
   63664:	mov    %eax,-0x520(%rbp)
   6366a:	jmpq   608ea <_IO_vfscanf+0x43ca>
   6366f:	mov    -0x620(%rbp),%rsi
   63676:	jmpq   5f1d9 <_IO_vfscanf+0x2cb9>
   6367b:	mov    -0x5a0(%rbp),%rax
   63682:	lea    0x8(%rax),%rdx
   63686:	mov    %rdx,-0x5a0(%rbp)
   6368d:	jmpq   61493 <_IO_vfscanf+0x4f73>
   63692:	mov    %rax,%r14
   63695:	jmpq   5c832 <_IO_vfscanf+0x312>
   6369a:	mov    %rbx,%rsi
   6369d:	mov    %eax,%r12d
   636a0:	jmpq   5f1d9 <_IO_vfscanf+0x2cb9>
   636a5:	mov    -0x518(%rbp),%rsi
   636ac:	lea    0x8(%rsi),%rax
   636b0:	mov    %rax,-0x518(%rbp)
   636b7:	jmpq   608ea <_IO_vfscanf+0x43ca>
   636bc:	mov    -0x610(%rbp),%rdi
   636c3:	movsbl %r10b,%esi
   636c7:	callq  5c4c0 <char_buffer_add_slow>
   636cc:	jmpq   5fd12 <_IO_vfscanf+0x37f2>
   636d1:	add    $0x8,%rcx
   636d5:	mov    $0x1,%edi
   636da:	jmpq   60cf6 <_IO_vfscanf+0x47d6>
   636df:	test   %bl,%bl
   636e1:	je     636eb <_IO_vfscanf+0x71cb>
   636e3:	mov    %esi,-0x520(%rbp)
   636e9:	mov    %esi,%edx
   636eb:	test   %dil,%dil
   636ee:	je     636f7 <_IO_vfscanf+0x71d7>
   636f0:	mov    %rcx,-0x518(%rbp)
   636f7:	cmp    $0x2f,%edx
   636fa:	ja     6371f <_IO_vfscanf+0x71ff>
   636fc:	mov    %edx,%ecx
   636fe:	add    -0x510(%rbp),%rcx
   63705:	add    $0x8,%edx
   63708:	mov    %edx,-0x520(%rbp)
   6370e:	mov    (%rcx),%rdx
   63711:	jmpq   5da5d <_IO_vfscanf+0x153d>
   63716:	add    $0x1,%r14
   6371a:	jmpq   5cc8d <_IO_vfscanf+0x76d>
   6371f:	mov    -0x518(%rbp),%rcx
   63726:	lea    0x8(%rcx),%rdx
   6372a:	mov    %rdx,-0x518(%rbp)
   63731:	jmp    6370e <_IO_vfscanf+0x71ee>
   63733:	mov    %r13,%r15
   63736:	mov    $0x2,%r13d
   6373c:	jmpq   5c9b8 <_IO_vfscanf+0x498>
   63741:	mov    -0x5a0(%rbp),%rax
   63748:	lea    0x8(%rax),%rdx
   6374c:	mov    %rdx,-0x5a0(%rbp)
   63753:	jmpq   5d1e4 <_IO_vfscanf+0xcc4>
   63758:	add    $0x8,%rdx
   6375c:	mov    $0x1,%esi
   63761:	jmpq   5fc79 <_IO_vfscanf+0x3759>
   63766:	test   %dil,%dil
   63769:	je     63773 <_IO_vfscanf+0x7253>
   6376b:	mov    %ecx,-0x520(%rbp)
   63771:	mov    %ecx,%eax
   63773:	test   %sil,%sil
   63776:	je     6377f <_IO_vfscanf+0x725f>
   63778:	mov    %rdx,-0x518(%rbp)
   6377f:	cmp    $0x2f,%eax
   63782:	ja     63865 <_IO_vfscanf+0x7345>
   63788:	mov    %eax,%edx
   6378a:	add    -0x510(%rbp),%rdx
   63791:	add    $0x8,%eax
   63794:	mov    %eax,-0x520(%rbp)
   6379a:	mov    (%rdx),%rax
   6379d:	mov    %rax,-0x608(%rbp)
   637a4:	mov    %rax,%rbx
   637a7:	jmpq   5d018 <_IO_vfscanf+0xaf8>
   637ac:	test   %bl,%bl
   637ae:	je     637b8 <_IO_vfscanf+0x7298>
   637b0:	mov    %esi,-0x520(%rbp)
   637b6:	mov    %esi,%edx
   637b8:	test   %dil,%dil
   637bb:	je     637c4 <_IO_vfscanf+0x72a4>
   637bd:	mov    %rcx,-0x518(%rbp)
   637c4:	cmp    $0x2f,%edx
   637c7:	ja     63ac1 <_IO_vfscanf+0x75a1>
   637cd:	mov    %edx,%ecx
   637cf:	add    -0x510(%rbp),%rcx
   637d6:	add    $0x8,%edx
   637d9:	mov    %edx,-0x520(%rbp)
   637df:	mov    (%rcx),%rdx
   637e2:	jmpq   5f85d <_IO_vfscanf+0x333d>
   637e7:	mov    -0x670(%rbp),%rbx
   637ee:	jmpq   5dd70 <_IO_vfscanf+0x1850>
   637f3:	mov    %r13,%r15
   637f6:	mov    $0x2,%r13d
   637fc:	jmpq   5c9b8 <_IO_vfscanf+0x498>
   63801:	mov    -0x610(%rbp),%rdi
   63808:	movsbl %al,%esi
   6380b:	callq  5c4c0 <char_buffer_add_slow>
   63810:	jmpq   5fd78 <_IO_vfscanf+0x3858>
   63815:	mov    %r13,%r15
   63818:	mov    $0x2,%r13d
   6381e:	jmpq   5c9b8 <_IO_vfscanf+0x498>
   63823:	lea    0x1(%r14),%rbx
   63827:	jmpq   5e87e <_IO_vfscanf+0x235e>
   6382c:	mov    -0x5a0(%rbp),%rsi
   63833:	lea    0x8(%rsi),%rax
   63837:	mov    %rax,-0x5a0(%rbp)
   6383e:	jmpq   608ea <_IO_vfscanf+0x43ca>
   63843:	mov    -0x5a0(%rbp),%rsi
   6384a:	lea    0x8(%rsi),%rax
   6384e:	mov    %rax,-0x5a0(%rbp)
   63855:	jmpq   60cb0 <_IO_vfscanf+0x4790>
   6385a:	movslq %eax,%rdx
   6385d:	add    %rdx,%rdx
   63860:	jmpq   5e667 <_IO_vfscanf+0x2147>
   63865:	mov    -0x518(%rbp),%rdx
   6386c:	lea    0x8(%rdx),%rax
   63870:	mov    %rax,-0x518(%rbp)
   63877:	jmpq   6379a <_IO_vfscanf+0x727a>
   6387c:	mov    -0x620(%rbp),%rsi
   63883:	xor    %eax,%eax
   63885:	jmpq   5fba6 <_IO_vfscanf+0x3686>
   6388a:	add    $0x8,%rcx
   6388e:	mov    $0x1,%edi
   63893:	jmpq   5f8fc <_IO_vfscanf+0x33dc>
   63898:	mov    %r13,%r15
   6389b:	mov    $0x2,%r13d
   638a1:	jmpq   5c9b8 <_IO_vfscanf+0x498>
   638a6:	mov    %r13,%rdi
   638a9:	callq  7d720 <__uflow>
   638ae:	cmp    $0xffffffff,%eax
   638b1:	mov    %eax,%r10d
   638b4:	je     638de <_IO_vfscanf+0x73be>
   638b6:	add    $0x7,%r14
   638ba:	jmpq   62c3e <_IO_vfscanf+0x671e>
   638bf:	mov    %r13,%r15
   638c2:	mov    $0x2,%r13d
   638c8:	jmpq   5c9b8 <_IO_vfscanf+0x498>
   638cd:	mov    -0x610(%rbp),%rdi
   638d4:	callq  5c4c0 <char_buffer_add_slow>
   638d9:	jmpq   62c17 <_IO_vfscanf+0x66f7>
   638de:	mov    %r13,%r15
   638e1:	mov    $0x2,%r13d
   638e7:	jmpq   5c9b8 <_IO_vfscanf+0x498>
   638ec:	mov    %r13,%r15
   638ef:	mov    $0x2,%r13d
   638f5:	jmpq   5c9b8 <_IO_vfscanf+0x498>
   638fa:	mov    %r13,%rdi
   638fd:	callq  7d720 <__uflow>
   63902:	cmp    $0xffffffff,%eax
   63905:	jne    62bd0 <_IO_vfscanf+0x66b0>
   6390b:	mov    %r13,%r15
   6390e:	mov    $0x2,%r13d
   63914:	jmpq   5c9b8 <_IO_vfscanf+0x498>
   63919:	mov    %r13,%r15
   6391c:	mov    $0x2,%r13d
   63922:	jmpq   5c9b8 <_IO_vfscanf+0x498>
   63927:	mov    -0x610(%rbp),%rdi
   6392e:	callq  5c4c0 <char_buffer_add_slow>
   63933:	jmpq   62bae <_IO_vfscanf+0x668e>
   63938:	mov    %r13,%r15
   6393b:	mov    $0x2,%r13d
   63941:	jmpq   5c9b8 <_IO_vfscanf+0x498>
   63946:	mov    %r13,%rdi
   63949:	callq  7d720 <__uflow>
   6394e:	cmp    $0xffffffff,%eax
   63951:	jne    62b67 <_IO_vfscanf+0x6647>
   63957:	mov    %r13,%r15
   6395a:	mov    $0x2,%r13d
   63960:	jmpq   5c9b8 <_IO_vfscanf+0x498>
   63965:	mov    %r13,%r15
   63968:	mov    $0x2,%r13d
   6396e:	jmpq   5c9b8 <_IO_vfscanf+0x498>
   63973:	mov    -0x610(%rbp),%rdi
   6397a:	callq  5c4c0 <char_buffer_add_slow>
   6397f:	jmpq   62b45 <_IO_vfscanf+0x6625>
   63984:	mov    %r13,%r15
   63987:	mov    $0x2,%r13d
   6398d:	jmpq   5c9b8 <_IO_vfscanf+0x498>
   63992:	mov    %r13,%rdi
   63995:	callq  7d720 <__uflow>
   6399a:	cmp    $0xffffffff,%eax
   6399d:	jne    62afe <_IO_vfscanf+0x65de>
   639a3:	mov    %r13,%r15
   639a6:	mov    $0x2,%r13d
   639ac:	jmpq   5c9b8 <_IO_vfscanf+0x498>
   639b1:	mov    %r13,%r15
   639b4:	mov    $0x2,%r13d
   639ba:	jmpq   5c9b8 <_IO_vfscanf+0x498>
   639bf:	mov    -0x610(%rbp),%rdi
   639c6:	callq  5c4c0 <char_buffer_add_slow>
   639cb:	jmpq   62adc <_IO_vfscanf+0x65bc>
   639d0:	mov    -0x5a0(%rbp),%rax
   639d7:	lea    0x8(%rax),%rdx
   639db:	mov    %rdx,-0x5a0(%rbp)
   639e2:	jmpq   5d57c <_IO_vfscanf+0x105c>
   639e7:	mov    %r15,%rcx
   639ea:	mov    %r13d,%r10d
   639ed:	mov    -0x6b8(%rbp),%r15
   639f4:	mov    %r12,%r13
   639f7:	mov    -0x6a4(%rbp),%r12d
   639fe:	mov    -0x620(%rbp),%rax
   63a05:	cmp    %rax,%rcx
   63a08:	jbe    60b3c <_IO_vfscanf+0x461c>
   63a0e:	mov    %rcx,%rdi
   63a11:	sub    %rax,%rdi
   63a14:	sub    %rdi,%rbx
   63a17:	cmp    $0xffffffff,%r10d
   63a1b:	mov    %rbx,-0x450(%rbp)
   63a22:	je     63a42 <_IO_vfscanf+0x7522>
   63a24:	movzbl %r10b,%esi
   63a28:	mov    %r13,%rdi
   63a2b:	mov    %rcx,-0x600(%rbp)
   63a32:	callq  7e5a0 <_IO_sputbackc>
   63a37:	mov    -0x600(%rbp),%rcx
   63a3e:	sub    $0x1,%r14
   63a42:	lea    -0x1(%rcx),%rdx
   63a46:	cmp    %rdx,-0x620(%rbp)
   63a4d:	jae    63a9a <_IO_vfscanf+0x757a>
   63a4f:	mov    %rdx,%rbx
   63a52:	movzbl (%rbx),%esi
   63a55:	mov    %r13,%rdi
   63a58:	mov    %rdx,-0x628(%rbp)
   63a5f:	mov    %rcx,-0x600(%rbp)
   63a66:	sub    $0x1,%rbx
   63a6a:	callq  7e5a0 <_IO_sputbackc>
   63a6f:	cmp    %rbx,-0x620(%rbp)
   63a76:	mov    -0x600(%rbp),%rcx
   63a7d:	mov    -0x628(%rbp),%rdx
   63a84:	jne    63a52 <_IO_vfscanf+0x7532>
   63a86:	mov    -0x620(%rbp),%rax
   63a8d:	sub    %rcx,%rax
   63a90:	add    $0x1,%rax
   63a94:	add    %rax,%rdx
   63a97:	add    %rax,%r14
   63a9a:	movzbl (%rdx),%r10d
   63a9e:	mov    -0x450(%rbp),%rbx
   63aa5:	jmpq   60b3c <_IO_vfscanf+0x461c>
   63aaa:	mov    -0x5a0(%rbp),%rax
   63ab1:	lea    0x8(%rax),%rdx
   63ab5:	mov    %rdx,-0x5a0(%rbp)
   63abc:	jmpq   60ab8 <_IO_vfscanf+0x4598>
   63ac1:	mov    -0x518(%rbp),%rcx
   63ac8:	lea    0x8(%rcx),%rdx
   63acc:	mov    %rdx,-0x518(%rbp)
   63ad3:	jmpq   637df <_IO_vfscanf+0x72bf>
   63ad8:	mov    %r13,%rdi
   63adb:	callq  7d720 <__uflow>
   63ae0:	cmp    $0xffffffff,%eax
   63ae3:	mov    %eax,%r10d
   63ae6:	jne    5f95c <_IO_vfscanf+0x343c>
   63aec:	mov    0x35c375(%rip),%rax        # 3bfe68 <_DYNAMIC+0x308>
   63af3:	movl   $0x10,-0x600(%rbp)
   63afd:	mov    %fs:(%rax),%eax
   63b00:	mov    %eax,-0x5e4(%rbp)
   63b06:	jmpq   5d8b4 <_IO_vfscanf+0x1394>
   63b0b:	mov    -0x5a0(%rbp),%rax
   63b12:	lea    0x8(%rax),%rdx
   63b16:	mov    %rdx,-0x5a0(%rbp)
   63b1d:	jmpq   5f5d7 <_IO_vfscanf+0x30b7>
   63b22:	mov    -0x638(%rbp),%r15
   63b29:	mov    %r12d,%r10d
   63b2c:	jmpq   5ede6 <_IO_vfscanf+0x28c6>
   63b31:	mov    -0x5a0(%rbp),%rsi
   63b38:	lea    0x8(%rsi),%rax
   63b3c:	mov    %rax,-0x5a0(%rbp)
   63b43:	jmpq   5ebe6 <_IO_vfscanf+0x26c6>
   63b48:	add    $0x8,%rdx
   63b4c:	mov    $0x1,%esi
   63b51:	jmpq   5ffa7 <_IO_vfscanf+0x3a87>
   63b56:	test   %dil,%dil
   63b59:	je     63b63 <_IO_vfscanf+0x7643>
   63b5b:	mov    %ecx,-0x520(%rbp)
   63b61:	mov    %ecx,%eax
   63b63:	test   %sil,%sil
   63b66:	je     63b6f <_IO_vfscanf+0x764f>
   63b68:	mov    %rdx,-0x518(%rbp)
   63b6f:	cmp    $0x2f,%eax
   63b72:	ja     63be2 <_IO_vfscanf+0x76c2>
   63b74:	mov    %eax,%edx
   63b76:	add    -0x510(%rbp),%rdx
   63b7d:	add    $0x8,%eax
   63b80:	mov    %eax,-0x520(%rbp)
   63b86:	mov    (%rdx),%rax
   63b89:	mov    %rax,-0x640(%rbp)
   63b90:	jmpq   5f5e1 <_IO_vfscanf+0x30c1>
   63b95:	add    $0x8,%rdx
   63b99:	mov    $0x1,%edi
   63b9e:	jmpq   612ca <_IO_vfscanf+0x4daa>
   63ba3:	test   %sil,%sil
   63ba6:	je     63bb0 <_IO_vfscanf+0x7690>
   63ba8:	mov    %ecx,-0x520(%rbp)
   63bae:	mov    %ecx,%eax
   63bb0:	test   %dil,%dil
   63bb3:	je     63bbc <_IO_vfscanf+0x769c>
   63bb5:	mov    %rdx,-0x518(%rbp)
   63bbc:	cmp    $0x2f,%eax
   63bbf:	ja     63bf6 <_IO_vfscanf+0x76d6>
   63bc1:	mov    %eax,%edx
   63bc3:	add    -0x510(%rbp),%rdx
   63bca:	add    $0x8,%eax
   63bcd:	mov    %eax,-0x520(%rbp)
   63bd3:	mov    (%rdx),%rax
   63bd6:	mov    %rax,-0x668(%rbp)
   63bdd:	jmpq   60ac2 <_IO_vfscanf+0x45a2>
   63be2:	mov    -0x518(%rbp),%rdx
   63be9:	lea    0x8(%rdx),%rax
   63bed:	mov    %rax,-0x518(%rbp)
   63bf4:	jmp    63b86 <_IO_vfscanf+0x7666>
   63bf6:	mov    -0x518(%rbp),%rdx
   63bfd:	lea    0x8(%rdx),%rax
   63c01:	mov    %rax,-0x518(%rbp)
   63c08:	jmp    63bd3 <_IO_vfscanf+0x76b3>
   63c0a:	add    $0x8,%rdx
   63c0e:	mov    $0x1,%edi
   63c13:	jmpq   6127a <_IO_vfscanf+0x4d5a>
   63c18:	test   %sil,%sil
   63c1b:	je     63c25 <_IO_vfscanf+0x7705>
   63c1d:	mov    %ecx,-0x520(%rbp)
   63c23:	mov    %ecx,%eax
   63c25:	test   %dil,%dil
   63c28:	je     63c31 <_IO_vfscanf+0x7711>
   63c2a:	mov    %rdx,-0x518(%rbp)
   63c31:	cmp    $0x2f,%eax
   63c34:	ja     63cbe <_IO_vfscanf+0x779e>
   63c3a:	mov    %eax,%edx
   63c3c:	add    -0x510(%rbp),%rdx
   63c43:	add    $0x8,%eax
   63c46:	mov    %eax,-0x520(%rbp)
   63c4c:	mov    (%rdx),%rax
   63c4f:	mov    %rax,-0x608(%rbp)
   63c56:	jmpq   5df38 <_IO_vfscanf+0x1a18>
   63c5b:	mov    -0x608(%rbp),%rax
   63c62:	lea    0x4(%rdx),%rsi
   63c66:	mov    %r10d,-0x640(%rbp)
   63c6d:	addq   $0x1,-0x658(%rbp)
   63c75:	mov    %rdx,-0x600(%rbp)
   63c7c:	mov    (%rax),%rdi
   63c7f:	callq  1f990 <*ABS*+0x911b0@plt+0x10>
   63c84:	test   %rax,%rax
   63c87:	mov    -0x600(%rbp),%rdx
   63c8e:	mov    -0x640(%rbp),%r10d
   63c95:	je     63cd5 <_IO_vfscanf+0x77b5>
   63c97:	mov    -0x608(%rbp),%rsi
   63c9e:	mov    %rax,(%rsi)
   63ca1:	add    %rdx,%rax
   63ca4:	mov    %rax,-0x640(%rbp)
   63cab:	jmpq   5e8df <_IO_vfscanf+0x23bf>
   63cb0:	add    $0x8,%rcx
   63cb4:	mov    $0x1,%edi
   63cb9:	jmpq   5efde <_IO_vfscanf+0x2abe>
   63cbe:	mov    -0x518(%rbp),%rdx
   63cc5:	lea    0x8(%rdx),%rax
   63cc9:	mov    %rax,-0x518(%rbp)
   63cd0:	jmpq   63c4c <_IO_vfscanf+0x772c>
   63cd5:	mov    -0x5ec(%rbp),%r12d
   63cdc:	mov    %r13,%r15
   63cdf:	and    $0x2000,%r12d
   63ce6:	jne    63d9b <_IO_vfscanf+0x787b>
   63cec:	mov    -0x608(%rbp),%rax
   63cf3:	addl   $0x1,-0x5e8(%rbp)
   63cfa:	mov    $0x2,%r13d
   63d00:	movq   $0x0,-0x608(%rbp)
   63d0b:	mov    (%rax),%rax
   63d0e:	movl   $0x0,-0x4(%rax,%rdx,1)
   63d16:	jmpq   5c9b8 <_IO_vfscanf+0x498>
   63d1b:	mov    -0x610(%rbp),%rdi
   63d22:	movsbl %r10b,%esi
   63d26:	mov    %r10d,-0x600(%rbp)
   63d2d:	callq  5c4c0 <char_buffer_add_slow>
   63d32:	mov    -0x600(%rbp),%r10d
   63d39:	jmpq   5fde5 <_IO_vfscanf+0x38c5>
   63d3e:	add    $0x8,%rdx
   63d42:	mov    $0x1,%esi
   63d47:	jmpq   61a3a <_IO_vfscanf+0x551a>
   63d4c:	test   %dil,%dil
   63d4f:	je     63d59 <_IO_vfscanf+0x7839>
   63d51:	mov    %ecx,-0x520(%rbp)
   63d57:	mov    %ecx,%eax
   63d59:	test   %sil,%sil
   63d5c:	je     63d65 <_IO_vfscanf+0x7845>
   63d5e:	mov    %rdx,-0x518(%rbp)
   63d65:	cmp    $0x2f,%eax
   63d68:	ja     63dad <_IO_vfscanf+0x788d>
   63d6a:	mov    %eax,%edx
   63d6c:	add    -0x510(%rbp),%rdx
   63d73:	add    $0x8,%eax
   63d76:	mov    %eax,-0x520(%rbp)
   63d7c:	mov    (%rdx),%rax
   63d7f:	jmpq   60fb5 <_IO_vfscanf+0x4a95>
   63d84:	mov    -0x5a0(%rbp),%rax
   63d8b:	lea    0x8(%rax),%rdx
   63d8f:	mov    %rdx,-0x5a0(%rbp)
   63d96:	jmpq   60fb2 <_IO_vfscanf+0x4a92>
   63d9b:	xor    %r13d,%r13d
   63d9e:	movl   $0xffffffff,-0x5e8(%rbp)
   63da8:	jmpq   5c9b8 <_IO_vfscanf+0x498>
   63dad:	mov    -0x518(%rbp),%rdx
   63db4:	lea    0x8(%rdx),%rax
   63db8:	mov    %rax,-0x518(%rbp)
   63dbf:	jmp    63d7c <_IO_vfscanf+0x785c>
   63dc1:	mov    %eax,%esi
   63dc3:	jmpq   5dd0b <_IO_vfscanf+0x17eb>
   63dc8:	add    $0x1,%r14
   63dcc:	jmpq   5c72c <_IO_vfscanf+0x20c>
   63dd1:	add    $0x8,%rcx
   63dd5:	mov    $0x1,%ebx
   63dda:	jmpq   61107 <_IO_vfscanf+0x4be7>
   63ddf:	test   %dil,%dil
   63de2:	je     63dec <_IO_vfscanf+0x78cc>
   63de4:	mov    %esi,-0x520(%rbp)
   63dea:	mov    %esi,%eax
   63dec:	test   %bl,%bl
   63dee:	je     63df7 <_IO_vfscanf+0x78d7>
   63df0:	mov    %rcx,-0x518(%rbp)
   63df7:	cmp    $0x2f,%eax
   63dfa:	ja     63e53 <_IO_vfscanf+0x7933>
   63dfc:	mov    %eax,%ecx
   63dfe:	add    -0x510(%rbp),%rcx
   63e05:	add    $0x8,%eax
   63e08:	mov    %eax,-0x520(%rbp)
   63e0e:	mov    (%rcx),%rax
   63e11:	mov    %rax,-0x608(%rbp)
   63e18:	mov    %rax,%rbx
   63e1b:	jmpq   5d5f9 <_IO_vfscanf+0x10d9>
   63e20:	mov    %r13,%r15
   63e23:	mov    $0x2,%r13d
   63e29:	jmpq   5c9b8 <_IO_vfscanf+0x498>
   63e2e:	pxor   %xmm0,%xmm0
   63e32:	movaps %xmm0,-0x450(%rbp)
   63e39:	jmpq   60648 <_IO_vfscanf+0x4128>
   63e3e:	mov    -0x610(%rbp),%rdi
   63e45:	movsbl %r12b,%esi
   63e49:	callq  5c4c0 <char_buffer_add_slow>
   63e4e:	jmpq   5eaad <_IO_vfscanf+0x258d>
   63e53:	mov    -0x518(%rbp),%rcx
   63e5a:	lea    0x8(%rcx),%rax
   63e5e:	mov    %rax,-0x518(%rbp)
   63e65:	jmp    63e0e <_IO_vfscanf+0x78ee>
   63e67:	movl   $0xffffffff,-0x5e8(%rbp)
   63e71:	jmpq   5c9b8 <_IO_vfscanf+0x498>
   63e76:	mov    -0x5a0(%rbp),%rdx
   63e7d:	lea    0x8(%rdx),%rcx
   63e81:	mov    %rcx,-0x5a0(%rbp)
   63e88:	jmpq   60a7f <_IO_vfscanf+0x455f>
   63e8d:	mov    %r13,%r15
   63e90:	mov    $0x2,%r13d
   63e96:	jmpq   5c9b8 <_IO_vfscanf+0x498>
   63e9b:	mov    -0x5a0(%rbp),%rax
   63ea2:	lea    0x8(%rax),%rdx
   63ea6:	mov    %rdx,-0x5a0(%rbp)
   63ead:	jmpq   5df2e <_IO_vfscanf+0x1a0e>
   63eb2:	test   %bl,%bl
   63eb4:	je     63ebe <_IO_vfscanf+0x799e>
   63eb6:	mov    %esi,-0x520(%rbp)
   63ebc:	mov    %esi,%edx
   63ebe:	test   %dil,%dil
   63ec1:	je     63eca <_IO_vfscanf+0x79aa>
   63ec3:	mov    %rcx,-0x518(%rbp)
   63eca:	cmp    $0x2f,%edx
   63ecd:	ja     63f02 <_IO_vfscanf+0x79e2>
   63ecf:	mov    %edx,%ecx
   63ed1:	add    -0x510(%rbp),%rcx
   63ed8:	add    $0x8,%edx
   63edb:	mov    %edx,-0x520(%rbp)
   63ee1:	mov    (%rcx),%rdx
   63ee4:	mov    %eax,(%rdx)
   63ee6:	jmpq   5da60 <_IO_vfscanf+0x1540>
   63eeb:	mov    -0x5a0(%rbp),%rax
   63ef2:	lea    0x8(%rax),%rcx
   63ef6:	mov    %rcx,-0x5a0(%rbp)
   63efd:	jmpq   60ea0 <_IO_vfscanf+0x4980>
   63f02:	mov    -0x518(%rbp),%rcx
   63f09:	lea    0x8(%rcx),%rdx
   63f0d:	mov    %rdx,-0x518(%rbp)
   63f14:	jmp    63ee1 <_IO_vfscanf+0x79c1>
   63f16:	add    $0x8,%rdx
   63f1a:	mov    $0x1,%esi
   63f1f:	jmpq   61c2b <_IO_vfscanf+0x570b>
   63f24:	test   %dil,%dil
   63f27:	je     63f31 <_IO_vfscanf+0x7a11>
   63f29:	mov    %ecx,-0x520(%rbp)
   63f2f:	mov    %ecx,%eax
   63f31:	test   %sil,%sil
   63f34:	je     63f3d <_IO_vfscanf+0x7a1d>
   63f36:	mov    %rdx,-0x518(%rbp)
   63f3d:	cmp    $0x2f,%eax
   63f40:	ja     63f5c <_IO_vfscanf+0x7a3c>
   63f42:	mov    %eax,%edx
   63f44:	add    -0x510(%rbp),%rdx
   63f4b:	add    $0x8,%eax
   63f4e:	mov    %eax,-0x520(%rbp)
   63f54:	mov    (%rdx),%rax
   63f57:	jmpq   61496 <_IO_vfscanf+0x4f76>
   63f5c:	mov    -0x518(%rbp),%rdx
   63f63:	lea    0x8(%rdx),%rax
   63f67:	mov    %rax,-0x518(%rbp)
   63f6e:	jmp    63f54 <_IO_vfscanf+0x7a34>

0000000000063fe0 <_IO_vfwscanf>:
   63fe0:	push   %rbp
   63fe1:	mov    %rsp,%rbp
   63fe4:	push   %r15
   63fe6:	push   %r14
   63fe8:	lea    -0x450(%rbp),%rax
   63fef:	push   %r13
   63ff1:	push   %r12
   63ff3:	push   %rbx
   63ff4:	mov    %rsi,%r13
   63ff7:	mov    $0x1,%esi
   63ffc:	mov    %rdi,%r15
   63fff:	sub    $0x588,%rsp
   64006:	mov    %rax,-0x528(%rbp)
   6400d:	add    $0x20,%rax
   64011:	mov    %rax,-0x440(%rbp)
   64018:	mov    (%rdx),%rax
   6401b:	mov    %rdx,-0x580(%rbp)
   64022:	mov    %rcx,-0x540(%rbp)
   64029:	movq   $0x400,-0x438(%rbp)
   64034:	mov    %rax,-0x4d8(%rbp)
   6403b:	mov    0x8(%rdx),%rax
   6403f:	mov    %rax,-0x4d0(%rbp)
   64046:	mov    0x10(%rdx),%rax
   6404a:	mov    %rax,-0x4c8(%rbp)
   64051:	callq  76d20 <_IO_fwide>
   64056:	cmp    $0x1,%eax
   64059:	mov    %eax,-0x508(%rbp)
   6405f:	jne    648c0 <_IO_vfwscanf+0x8e0>
   64065:	mov    (%r15),%eax
   64068:	test   $0x4,%al
   6406a:	jne    660d9 <_IO_vfwscanf+0x20f9>
   64070:	test   %r13,%r13
   64073:	je     67167 <_IO_vfwscanf+0x3187>
   64079:	mov    0x35bd30(%rip),%rsi        # 3bfdb0 <_DYNAMIC+0x250>
   64080:	mov    %fs:(%rsi),%rdx
   64084:	mov    0x8(%rdx),%rdx
   64088:	mov    0x60(%rdx),%edi
   6408b:	mov    0x58(%rdx),%esi
   6408e:	mov    %edi,-0x518(%rbp)
   64094:	mov    0x361656(%rip),%edi        # 3c56f0 <__libc_pthread_functions_init>
   6409a:	mov    %esi,-0x548(%rbp)
   640a0:	test   %edi,%edi
   640a2:	mov    %edi,-0x544(%rbp)
   640a8:	jne    64728 <_IO_vfwscanf+0x748>
   640ae:	mov    0x35beb3(%rip),%rdx        # 3bff68 <_DYNAMIC+0x408>
   640b5:	mov    %r15,-0x4b8(%rbp)
   640bc:	mov    %rdx,-0x4c0(%rbp)
   640c3:	and    $0x8000,%eax
   640c8:	je     64340 <_IO_vfwscanf+0x360>
   640ce:	lea    -0x4f0(%rbp),%rax
   640d5:	xor    %r14d,%r14d
   640d8:	xor    %r8d,%r8d
   640db:	mov    %r14,-0x510(%rbp)
   640e2:	movl   $0x0,-0x500(%rbp)
   640ec:	mov    %r15,%r14
   640ef:	mov    %rax,-0x590(%rbp)
   640f6:	lea    -0x4a0(%rbp),%rax
   640fd:	movl   $0x0,-0x514(%rbp)
   64107:	movq   $0x0,-0x550(%rbp)
   64112:	movq   $0x0,-0x520(%rbp)
   6411d:	mov    %r8d,%r15d
   64120:	movq   $0x0,-0x578(%rbp)
   6412b:	movq   $0x0,-0x570(%rbp)
   64136:	movq   $0x0,-0x4f8(%rbp)
   64141:	movl   $0x0,-0x504(%rbp)
   6414b:	mov    %rax,-0x588(%rbp)
   64152:	mov    0x0(%r13),%r12d
   64156:	test   %r12d,%r12d
   64159:	je     66080 <_IO_vfwscanf+0x20a0>
   6415f:	cmp    $0x25,%r12d
   64163:	lea    0x4(%r13),%rbx
   64167:	je     64208 <_IO_vfwscanf+0x228>
   6416d:	mov    %r12d,%edi
   64170:	callq  10b4f0 <iswspace>
   64175:	test   %eax,%eax
   64177:	jne    641f0 <_IO_vfwscanf+0x210>
   64179:	cmp    $0xffffffff,%r15d
   6417d:	je     64760 <_IO_vfwscanf+0x780>
   64183:	mov    0xa0(%r14),%rax
   6418a:	test   %rax,%rax
   6418d:	je     64890 <_IO_vfwscanf+0x8b0>
   64193:	mov    (%rax),%rdx
   64196:	cmp    0x8(%rax),%rdx
   6419a:	jae    64890 <_IO_vfwscanf+0x8b0>
   641a0:	mov    (%rdx),%r15d
   641a3:	lea    0x4(%rdx),%rcx
   641a7:	mov    %rcx,(%rax)
   641aa:	cmp    $0xffffffff,%r15d
   641ae:	je     648a8 <_IO_vfwscanf+0x8c8>
   641b4:	addq   $0x1,-0x4f8(%rbp)
   641bc:	mov    -0x500(%rbp),%edx
   641c2:	mov    -0x4f8(%rbp),%rax
   641c9:	test   %edx,%edx
   641cb:	mov    %rax,%r13
   641ce:	jne    642e0 <_IO_vfwscanf+0x300>
   641d4:	cmp    %r12d,%r15d
   641d7:	jne    64a10 <_IO_vfwscanf+0xa30>
   641dd:	movl   $0x0,-0x500(%rbp)
   641e7:	jmp    641fa <_IO_vfwscanf+0x21a>
   641e9:	nopl   0x0(%rax)
   641f0:	movl   $0x1,-0x500(%rbp)
   641fa:	mov    %rbx,%r13
   641fd:	jmpq   64152 <_IO_vfwscanf+0x172>
   64202:	nopw   0x0(%rax,%rax,1)
   64208:	mov    -0x438(%rbp),%rdx
   6420f:	mov    -0x440(%rbp),%rax
   64216:	and    $0xfffffffffffffffc,%rdx
   6421a:	mov    %rax,-0x450(%rbp)
   64221:	add    %rdx,%rax
   64224:	mov    %rax,-0x448(%rbp)
   6422b:	mov    0x4(%r13),%eax
   6422f:	sub    $0x30,%eax
   64232:	cmp    $0x9,%eax
   64235:	mov    %eax,%esi
   64237:	mov    %eax,-0x530(%rbp)
   6423d:	jbe    643f0 <_IO_vfwscanf+0x410>
   64243:	movl   $0x0,-0x530(%rbp)
   6424d:	mov    -0x518(%rbp),%eax
   64253:	xor    %r13d,%r13d
   64256:	movabs $0x400000009,%rcx
   64260:	test   %eax,%eax
   64262:	jne    643a4 <_IO_vfwscanf+0x3c4>
   64268:	nopl   0x0(%rax,%rax,1)
   64270:	mov    (%rbx),%edx
   64272:	lea    -0x27(%rdx),%eax
   64275:	cmp    $0x22,%eax
   64278:	jbe    64648 <_IO_vfwscanf+0x668>
   6427e:	lea    -0x30(%rdx),%eax
   64281:	mov    $0xffffffff,%r12d
   64287:	cmp    $0x9,%eax
   6428a:	ja     642b2 <_IO_vfwscanf+0x2d2>
   6428c:	xor    %r12d,%r12d
   6428f:	nop
   64290:	lea    (%r12,%r12,4),%edx
   64294:	add    $0x4,%rbx
   64298:	lea    (%rax,%rdx,2),%r12d
   6429c:	mov    (%rbx),%edx
   6429e:	lea    -0x30(%rdx),%eax
   642a1:	cmp    $0x9,%eax
   642a4:	jbe    64290 <_IO_vfwscanf+0x2b0>
   642a6:	test   %r12d,%r12d
   642a9:	mov    $0xffffffff,%eax
   642ae:	cmove  %eax,%r12d
   642b2:	lea    0x4(%rbx),%rax
   642b6:	mov    %rax,-0x558(%rbp)
   642bd:	lea    -0x4c(%rdx),%eax
   642c0:	cmp    $0x2e,%eax
   642c3:	ja     64a40 <_IO_vfwscanf+0xa60>
   642c9:	lea    0x11f958(%rip),%rcx        # 183c28 <jump_table+0x468>
   642d0:	movslq (%rcx,%rax,4),%rax
   642d4:	add    %rcx,%rax
   642d7:	jmpq   *%rax
   642d9:	nopl   0x0(%rax)
   642e0:	mov    %r15d,%edi
   642e3:	callq  10b4f0 <iswspace>
   642e8:	test   %eax,%eax
   642ea:	je     6432d <_IO_vfwscanf+0x34d>
   642ec:	mov    0xa0(%r14),%rax
   642f3:	test   %rax,%rax
   642f6:	je     646d0 <_IO_vfwscanf+0x6f0>
   642fc:	mov    (%rax),%rdx
   642ff:	cmp    0x8(%rax),%rdx
   64303:	jae    646d0 <_IO_vfwscanf+0x6f0>
   64309:	lea    0x4(%rdx),%rcx
   6430d:	mov    (%rdx),%r15d
   64310:	mov    %rcx,(%rax)
   64313:	cmp    $0xffffffff,%r15d
   64317:	je     64690 <_IO_vfwscanf+0x6b0>
   6431d:	mov    %r15d,%edi
   64320:	add    $0x1,%r13
   64324:	callq  10b4f0 <iswspace>
   64329:	test   %eax,%eax
   6432b:	jne    642ec <_IO_vfwscanf+0x30c>
   6432d:	mov    %r13,-0x4f8(%rbp)
   64334:	jmpq   641d4 <_IO_vfwscanf+0x1f4>
   64339:	nopl   0x0(%rax)
   64340:	mov    0x88(%r15),%rdx
   64347:	mov    %fs:0x10,%r8
   64350:	cmp    0x8(%rdx),%r8
   64354:	je     64392 <_IO_vfwscanf+0x3b2>
   64356:	mov    $0x1,%esi
   6435b:	cmpl   $0x0,0x36139e(%rip)        # 3c5700 <__libc_multiple_threads>
   64362:	je     6436c <_IO_vfwscanf+0x38c>
   64364:	lock cmpxchg %esi,(%rdx)
   64368:	jne    64371 <_IO_vfwscanf+0x391>
   6436a:	jmp    64387 <_IO_vfwscanf+0x3a7>
   6436c:	cmpxchg %esi,(%rdx)
   6436f:	je     64387 <_IO_vfwscanf+0x3a7>
   64371:	lea    (%rdx),%rdi
   64374:	sub    $0x80,%rsp
   6437b:	callq  115f40 <__lll_lock_wait_private>
   64380:	add    $0x80,%rsp
   64387:	mov    0x88(%r15),%rdx
   6438e:	mov    %r8,0x8(%rdx)
   64392:	addl   $0x1,0x4(%rdx)
   64396:	jmpq   640ce <_IO_vfwscanf+0xee>
   6439b:	nopl   0x0(%rax,%rax,1)
   643a0:	or     $0x8,%r13d
   643a4:	mov    (%rbx),%edx
   643a6:	lea    -0x27(%rdx),%eax
   643a9:	cmp    $0x22,%eax
   643ac:	ja     6427e <_IO_vfwscanf+0x29e>
   643b2:	bt     %rax,%rcx
   643b6:	jae    6427e <_IO_vfwscanf+0x29e>
   643bc:	add    $0x4,%rbx
   643c0:	cmp    $0x2a,%edx
   643c3:	je     643a0 <_IO_vfwscanf+0x3c0>
   643c5:	cmp    $0x49,%edx
   643c8:	je     64670 <_IO_vfwscanf+0x690>
   643ce:	mov    %r13d,%eax
   643d1:	or     $0x80,%al
   643d3:	cmp    $0x27,%edx
   643d6:	mov    (%rbx),%edx
   643d8:	cmove  %eax,%r13d
   643dc:	lea    -0x27(%rdx),%eax
   643df:	cmp    $0x22,%eax
   643e2:	ja     6427e <_IO_vfwscanf+0x29e>
   643e8:	jmp    643b2 <_IO_vfwscanf+0x3d2>
   643ea:	nopw   0x0(%rax,%rax,1)
   643f0:	mov    0x8(%r13),%eax
   643f4:	lea    0x8(%r13),%rbx
   643f8:	lea    -0x30(%rax),%ecx
   643fb:	mov    %eax,%edx
   643fd:	cmp    $0x9,%ecx
   64400:	ja     64425 <_IO_vfwscanf+0x445>
   64402:	mov    %esi,%ecx
   64404:	nopl   0x0(%rax)
   64408:	lea    (%rcx,%rcx,4),%edx
   6440b:	add    $0x4,%rbx
   6440f:	lea    -0x30(%rax,%rdx,2),%ecx
   64413:	mov    (%rbx),%eax
   64415:	lea    -0x30(%rax),%esi
   64418:	mov    %eax,%edx
   6441a:	cmp    $0x9,%esi
   6441d:	jbe    64408 <_IO_vfwscanf+0x428>
   6441f:	mov    %ecx,-0x530(%rbp)
   64425:	cmp    $0x24,%eax
   64428:	je     648d0 <_IO_vfwscanf+0x8f0>
   6442e:	mov    -0x530(%rbp),%r12d
   64435:	xor    %r13d,%r13d
   64438:	movl   $0x0,-0x530(%rbp)
   64442:	jmpq   642a6 <_IO_vfwscanf+0x2c6>
   64447:	nopw   0x0(%rax,%rax,1)
   64450:	mov    0x4(%rbx),%edx
   64453:	or     $0x1,%r13d
   64457:	test   %edx,%edx
   64459:	je     649f0 <_IO_vfwscanf+0xa10>
   6445f:	mov    -0x558(%rbp),%rax
   64466:	lea    0x4(%rax),%rbx
   6446a:	mov    -0x500(%rbp),%eax
   64470:	test   %eax,%eax
   64472:	jne    64480 <_IO_vfwscanf+0x4a0>
   64474:	lea    -0x43(%rdx),%eax
   64477:	cmp    $0x2b,%eax
   6447a:	jbe    647fe <_IO_vfwscanf+0x81e>
   64480:	mov    0x35b9e1(%rip),%rax        # 3bfe68 <_DYNAMIC+0x308>
   64487:	mov    %rbx,-0x500(%rbp)
   6448e:	mov    %r12d,-0x560(%rbp)
   64495:	mov    -0x4f8(%rbp),%rbx
   6449c:	mov    %r15d,%r12d
   6449f:	mov    %edx,-0x568(%rbp)
   644a5:	mov    %fs:(%rax),%esi
   644a8:	mov    %rax,-0x538(%rbp)
   644af:	movl   $0x0,%fs:(%rax)
   644b6:	mov    %esi,-0x598(%rbp)
   644bc:	jmp    644d7 <_IO_vfwscanf+0x4f7>
   644be:	xchg   %ax,%ax
   644c0:	mov    %r12d,%edi
   644c3:	lea    0x1(%rbx),%r15
   644c7:	callq  10b4f0 <iswspace>
   644cc:	test   %eax,%eax
   644ce:	je     648e0 <_IO_vfwscanf+0x900>
   644d4:	mov    %r15,%rbx
   644d7:	cmp    $0xffffffff,%r12d
   644db:	je     64790 <_IO_vfwscanf+0x7b0>
   644e1:	mov    0xa0(%r14),%rax
   644e8:	test   %rax,%rax
   644eb:	je     646c0 <_IO_vfwscanf+0x6e0>
   644f1:	mov    (%rax),%rdx
   644f4:	cmp    0x8(%rax),%rdx
   644f8:	jae    646c0 <_IO_vfwscanf+0x6e0>
   644fe:	lea    0x4(%rdx),%rcx
   64502:	mov    (%rdx),%r12d
   64505:	mov    %rcx,(%rax)
   64508:	cmp    $0xffffffff,%r12d
   6450c:	jne    644c0 <_IO_vfwscanf+0x4e0>
   6450e:	mov    -0x538(%rbp),%rax
   64515:	mov    %rbx,-0x4f8(%rbp)
   6451c:	mov    -0x560(%rbp),%r12d
   64523:	mov    -0x500(%rbp),%rbx
   6452a:	mov    -0x568(%rbp),%edx
   64530:	mov    %fs:(%rax),%eax
   64533:	cmp    $0x4,%eax
   64536:	mov    %eax,-0x514(%rbp)
   6453c:	je     6456b <_IO_vfwscanf+0x58b>
   6453e:	mov    $0xffffffff,%edi
   64543:	mov    %edx,-0x500(%rbp)
   64549:	callq  10b4f0 <iswspace>
   6454e:	test   %eax,%eax
   64550:	mov    -0x500(%rbp),%edx
   64556:	je     649a0 <_IO_vfwscanf+0x9c0>
   6455c:	mov    -0x538(%rbp),%rax
   64563:	mov    %fs:(%rax),%eax
   64566:	cmp    $0x4,%eax
   64569:	jne    6453e <_IO_vfwscanf+0x55e>
   6456b:	mov    -0x504(%rbp),%eax
   64571:	mov    %r14,%r15
   64574:	mov    -0x510(%rbp),%r14
   6457b:	test   %eax,%eax
   6457d:	mov    %eax,%ebx
   6457f:	jne    64590 <_IO_vfwscanf+0x5b0>
   64581:	mov    $0xffffffff,%ebx
   64586:	mov    %ebx,-0x504(%rbp)
   6458c:	nopl   0x0(%rax)
   64590:	testl  $0x8000,(%r15)
   64597:	jne    645d8 <_IO_vfwscanf+0x5f8>
   64599:	mov    0x88(%r15),%rdx
   645a0:	subl   $0x1,0x4(%rdx)
   645a4:	jne    645d8 <_IO_vfwscanf+0x5f8>
   645a6:	movq   $0x0,0x8(%rdx)
   645ae:	cmpl   $0x0,0x36114b(%rip)        # 3c5700 <__libc_multiple_threads>
   645b5:	je     645be <_IO_vfwscanf+0x5de>
   645b7:	lock decl (%rdx)
   645ba:	jne    645c2 <_IO_vfwscanf+0x5e2>
   645bc:	jmp    645d8 <_IO_vfwscanf+0x5f8>
   645be:	decl   (%rdx)
   645c0:	je     645d8 <_IO_vfwscanf+0x5f8>
   645c2:	lea    (%rdx),%rdi
   645c5:	sub    $0x80,%rsp
   645cc:	callq  115f70 <__lll_unlock_wake_private>
   645d1:	add    $0x80,%rsp
   645d8:	mov    -0x544(%rbp),%eax
   645de:	test   %eax,%eax
   645e0:	jne    64700 <_IO_vfwscanf+0x720>
   645e6:	mov    -0x528(%rbp),%rax
   645ed:	mov    -0x440(%rbp),%rdi
   645f4:	add    $0x20,%rax
   645f8:	cmp    %rax,%rdi
   645fb:	je     64602 <_IO_vfwscanf+0x622>
   645fd:	callq  1f9c0 <*ABS*+0x911b0@plt+0x40>
   64602:	mov    -0x540(%rbp),%rax
   64609:	test   %rax,%rax
   6460c:	je     64616 <_IO_vfwscanf+0x636>
   6460e:	mov    -0x508(%rbp),%edi
   64614:	or     %edi,(%rax)
   64616:	cmpl   $0xffffffff,-0x504(%rbp)
   6461d:	je     64950 <_IO_vfwscanf+0x970>
   64623:	cmpq   $0x0,-0x520(%rbp)
   6462b:	jne    649d0 <_IO_vfwscanf+0x9f0>
   64631:	lea    -0x28(%rbp),%rsp
   64635:	mov    %ebx,%eax
   64637:	pop    %rbx
   64638:	pop    %r12
   6463a:	pop    %r13
   6463c:	pop    %r14
   6463e:	pop    %r15
   64640:	pop    %rbp
   64641:	retq   
   64642:	nopw   0x0(%rax,%rax,1)
   64648:	bt     %rax,%rcx
   6464c:	jae    6427e <_IO_vfwscanf+0x29e>
   64652:	add    $0x4,%rbx
   64656:	cmp    $0x2a,%edx
   64659:	je     64680 <_IO_vfwscanf+0x6a0>
   6465b:	mov    %r13d,%eax
   6465e:	or     $0x4,%ah
   64661:	cmp    $0x49,%edx
   64664:	cmove  %eax,%r13d
   64668:	jmpq   64270 <_IO_vfwscanf+0x290>
   6466d:	nopl   (%rax)
   64670:	or     $0x400,%r13d
   64677:	jmpq   643a4 <_IO_vfwscanf+0x3c4>
   6467c:	nopl   0x0(%rax)
   64680:	or     $0x8,%r13d
   64684:	jmpq   64270 <_IO_vfwscanf+0x290>
   64689:	nopl   0x0(%rax)
   64690:	mov    -0x504(%rbp),%eax
   64696:	mov    %r15d,%r13d
   64699:	mov    %r14,%r15
   6469c:	mov    -0x510(%rbp),%r14
   646a3:	test   %eax,%eax
   646a5:	je     646e0 <_IO_vfwscanf+0x700>
   646a7:	mov    %eax,%ebx
   646a9:	mov    -0x500(%rbp),%eax
   646af:	mov    %eax,-0x508(%rbp)
   646b5:	jmpq   64590 <_IO_vfwscanf+0x5b0>
   646ba:	nopw   0x0(%rax,%rax,1)
   646c0:	mov    %r14,%rdi
   646c3:	callq  73620 <__wuflow>
   646c8:	mov    %eax,%r12d
   646cb:	jmpq   64508 <_IO_vfwscanf+0x528>
   646d0:	mov    %r14,%rdi
   646d3:	callq  73620 <__wuflow>
   646d8:	mov    %eax,%r15d
   646db:	jmpq   64313 <_IO_vfwscanf+0x333>
   646e0:	mov    -0x500(%rbp),%eax
   646e6:	mov    %r13d,%ebx
   646e9:	mov    %r13d,-0x504(%rbp)
   646f0:	mov    %eax,-0x508(%rbp)
   646f6:	jmpq   64590 <_IO_vfwscanf+0x5b0>
   646fb:	nopl   0x0(%rax,%rax,1)
   64700:	mov    0x360fb1(%rip),%rax        # 3c56b8 <__libc_pthread_functions+0x178>
   64707:	lea    -0x4c0(%rbp),%rdi
   6470e:	xor    %esi,%esi
   64710:	ror    $0x11,%rax
   64714:	xor    %fs:0x30,%rax
   6471d:	callq  *%rax
   6471f:	jmpq   645e6 <_IO_vfwscanf+0x606>
   64724:	nopl   0x0(%rax)
   64728:	mov    0x360f81(%rip),%rax        # 3c56b0 <__libc_pthread_functions+0x170>
   6472f:	lea    -0x4c0(%rbp),%rdi
   64736:	mov    %r15,%rdx
   64739:	ror    $0x11,%rax
   6473d:	xor    %fs:0x30,%rax
   64746:	mov    0x35b81b(%rip),%rsi        # 3bff68 <_DYNAMIC+0x408>
   6474d:	callq  *%rax
   6474f:	mov    (%r15),%eax
   64752:	jmpq   640c3 <_IO_vfwscanf+0xe3>
   64757:	nopw   0x0(%rax,%rax,1)
   64760:	mov    0x35b701(%rip),%rax        # 3bfe68 <_DYNAMIC+0x308>
   64767:	mov    -0x514(%rbp),%esi
   6476d:	mov    %r14,%r15
   64770:	mov    -0x510(%rbp),%r14
   64777:	mov    %esi,%fs:(%rax)
   6477a:	mov    -0x504(%rbp),%eax
   64780:	test   %eax,%eax
   64782:	je     647b0 <_IO_vfwscanf+0x7d0>
   64784:	mov    -0x504(%rbp),%ebx
   6478a:	jmpq   64590 <_IO_vfwscanf+0x5b0>
   6478f:	nop
   64790:	mov    %rbx,-0x4f8(%rbp)
   64797:	mov    -0x560(%rbp),%r12d
   6479e:	mov    -0x500(%rbp),%rbx
   647a5:	mov    -0x568(%rbp),%edx
   647ab:	jmpq   6455c <_IO_vfwscanf+0x57c>
   647b0:	mov    $0xffffffff,%ebx
   647b5:	mov    %ebx,-0x504(%rbp)
   647bb:	jmpq   64590 <_IO_vfwscanf+0x5b0>
   647c0:	mov    0x4(%rbx),%eax
   647c3:	mov    %eax,%ecx
   647c5:	and    $0xfffffff7,%ecx
   647c8:	cmp    $0x53,%ecx
   647cb:	je     660b0 <_IO_vfwscanf+0x20d0>
   647d1:	cmp    $0x73,%eax
   647d4:	je     660b0 <_IO_vfwscanf+0x20d0>
   647da:	mov    -0x500(%rbp),%ecx
   647e0:	mov    %rbx,%rax
   647e3:	mov    -0x558(%rbp),%rbx
   647ea:	mov    %rax,-0x558(%rbp)
   647f1:	test   %ecx,%ecx
   647f3:	jne    64480 <_IO_vfwscanf+0x4a0>
   647f9:	mov    $0x1e,%eax
   647fe:	movabs $0x80101000001,%rcx
   64808:	bt     %rax,%rcx
   6480c:	jae    64480 <_IO_vfwscanf+0x4a0>
   64812:	sub    $0x43,%edx
   64815:	cmp    $0x2b,%edx
   64818:	ja     65942 <_IO_vfwscanf+0x1962>
   6481e:	lea    0x11f4bf(%rip),%rcx        # 183ce4 <jump_table+0x524>
   64825:	movslq (%rcx,%rdx,4),%rax
   64829:	add    %rcx,%rax
   6482c:	jmpq   *%rax
   6482e:	xchg   %ax,%ax
   64830:	mov    0x4(%rbx),%edx
   64833:	cmp    $0x6c,%edx
   64836:	je     66476 <_IO_vfwscanf+0x2496>
   6483c:	or     $0x2000,%r13d
   64843:	jmpq   64457 <_IO_vfwscanf+0x477>
   64848:	nopl   0x0(%rax,%rax,1)
   64850:	mov    0x4(%rbx),%edx
   64853:	cmp    $0x6c,%edx
   64856:	je     6645f <_IO_vfwscanf+0x247f>
   6485c:	or     $0x1,%r13d
   64860:	jmpq   64457 <_IO_vfwscanf+0x477>
   64865:	nopl   (%rax)
   64868:	mov    0x4(%rbx),%edx
   6486b:	cmp    $0x68,%edx
   6486e:	je     66445 <_IO_vfwscanf+0x2465>
   64874:	or     $0x4,%r13d
   64878:	jmpq   64457 <_IO_vfwscanf+0x477>
   6487d:	nopl   (%rax)
   64880:	or     $0x3,%r13d
   64884:	mov    0x4(%rbx),%edx
   64887:	jmpq   64457 <_IO_vfwscanf+0x477>
   6488c:	nopl   0x0(%rax)
   64890:	mov    %r14,%rdi
   64893:	callq  73620 <__wuflow>
   64898:	mov    %eax,%r15d
   6489b:	cmp    $0xffffffff,%r15d
   6489f:	jne    641b4 <_IO_vfwscanf+0x1d4>
   648a5:	nopl   (%rax)
   648a8:	mov    %r14,%r15
   648ab:	mov    -0x510(%rbp),%r14
   648b2:	jmpq   6477a <_IO_vfwscanf+0x79a>
   648b7:	nopw   0x0(%rax,%rax,1)
   648c0:	mov    $0xffffffff,%ebx
   648c5:	jmpq   64631 <_IO_vfwscanf+0x651>
   648ca:	nopw   0x0(%rax,%rax,1)
   648d0:	add    $0x4,%rbx
   648d4:	jmpq   6424d <_IO_vfwscanf+0x26d>
   648d9:	nopl   0x0(%rax)
   648e0:	mov    -0x598(%rbp),%edi
   648e6:	mov    %rbx,-0x4f8(%rbp)
   648ed:	mov    -0x500(%rbp),%rbx
   648f4:	mov    %eax,-0x500(%rbp)
   648fa:	mov    -0x538(%rbp),%rax
   64901:	mov    -0x568(%rbp),%edx
   64907:	mov    %r15,-0x568(%rbp)
   6490e:	mov    %r12d,%r15d
   64911:	mov    -0x560(%rbp),%r12d
   64918:	mov    %r15d,%esi
   6491b:	mov    %edi,%fs:(%rax)
   6491e:	mov    %r14,%rdi
   64921:	mov    %edx,-0x560(%rbp)
   64927:	callq  74430 <_IO_sputbackwc>
   6492c:	mov    -0x560(%rbp),%edx
   64932:	sub    $0x25,%edx
   64935:	cmp    $0x53,%edx
   64938:	ja     65e09 <_IO_vfwscanf+0x1e29>
   6493e:	lea    0x11f44f(%rip),%rcx        # 183d94 <jump_table+0x5d4>
   64945:	movslq (%rcx,%rdx,4),%rax
   64949:	add    %rcx,%rax
   6494c:	jmpq   *%rax
   6494e:	xchg   %ax,%ax
   64950:	test   %r14,%r14
   64953:	je     64631 <_IO_vfwscanf+0x651>
   64959:	nopl   0x0(%rax)
   64960:	xor    %r12d,%r12d
   64963:	cmpq   $0x0,(%r14)
   64967:	je     64992 <_IO_vfwscanf+0x9b2>
   64969:	nopl   0x0(%rax)
   64970:	mov    0x10(%r14,%r12,8),%rax
   64975:	mov    (%rax),%rdi
   64978:	callq  1f9c0 <*ABS*+0x911b0@plt+0x40>
   6497d:	mov    0x10(%r14,%r12,8),%rax
   64982:	add    $0x1,%r12
   64986:	cmp    %r12,(%r14)
   64989:	movq   $0x0,(%rax)
   64990:	ja     64970 <_IO_vfwscanf+0x990>
   64992:	mov    0x8(%r14),%r14
   64996:	test   %r14,%r14
   64999:	jne    64960 <_IO_vfwscanf+0x980>
   6499b:	jmpq   64631 <_IO_vfwscanf+0x651>
   649a0:	mov    -0x538(%rbp),%rax
   649a7:	mov    -0x598(%rbp),%edi
   649ad:	sub    $0x25,%edx
   649b0:	cmp    $0x53,%edx
   649b3:	mov    %edi,%fs:(%rax)
   649b6:	ja     65dea <_IO_vfwscanf+0x1e0a>
   649bc:	lea    0x11f521(%rip),%rcx        # 183ee4 <jump_table+0x724>
   649c3:	movslq (%rcx,%rdx,4),%rax
   649c7:	add    %rcx,%rax
   649ca:	jmpq   *%rax
   649cc:	nopl   0x0(%rax)
   649d0:	mov    -0x520(%rbp),%r14
   649d7:	mov    (%r14),%rdi
   649da:	callq  1f9c0 <*ABS*+0x911b0@plt+0x40>
   649df:	movq   $0x0,(%r14)
   649e6:	jmpq   64631 <_IO_vfwscanf+0x651>
   649eb:	nopl   0x0(%rax,%rax,1)
   649f0:	mov    %r14,%r15
   649f3:	mov    -0x504(%rbp),%ebx
   649f9:	mov    -0x510(%rbp),%r14
   64a00:	movl   $0x2,-0x508(%rbp)
   64a0a:	jmpq   64590 <_IO_vfwscanf+0x5b0>
   64a0f:	nop
   64a10:	mov    %r15d,%r13d
   64a13:	mov    %r14,%r15
   64a16:	mov    -0x510(%rbp),%r14
   64a1d:	mov    %r13d,%esi
   64a20:	mov    %r15,%rdi
   64a23:	callq  74430 <_IO_sputbackwc>
   64a28:	mov    -0x504(%rbp),%ebx
   64a2e:	movl   $0x2,-0x508(%rbp)
   64a38:	jmpq   64590 <_IO_vfwscanf+0x5b0>
   64a3d:	nopl   (%rax)
   64a40:	mov    %rbx,-0x558(%rbp)
   64a47:	jmpq   64457 <_IO_vfwscanf+0x477>
   64a4c:	mov    %r14,%r15
   64a4f:	mov    -0x538(%rbp),%rax
   64a56:	mov    -0x510(%rbp),%r14
   64a5d:	mov    -0x514(%rbp),%edi
   64a63:	mov    %edi,%fs:(%rax)
   64a66:	mov    -0x504(%rbp),%r10d
   64a6d:	test   %r10d,%r10d
   64a70:	je     660c9 <_IO_vfwscanf+0x20e9>
   64a76:	mov    -0x504(%rbp),%ebx
   64a7c:	jmpq   64590 <_IO_vfwscanf+0x5b0>
   64a81:	mov    $0xffffffff,%r15d
   64a87:	mov    %r13d,%eax
   64a8a:	and    $0x8,%eax
   64a8d:	mov    %eax,-0x500(%rbp)
   64a93:	jne    64b55 <_IO_vfwscanf+0xb75>
   64a99:	test   $0x2100,%r13d
   64aa0:	je     66d26 <_IO_vfwscanf+0x2d46>
   64aa6:	mov    -0x530(%rbp),%r10d
   64aad:	test   %r10d,%r10d
   64ab0:	jne    677b0 <_IO_vfwscanf+0x37d0>
   64ab6:	mov    -0x4d8(%rbp),%edx
   64abc:	cmp    $0x2f,%edx
   64abf:	ja     6b2e0 <_IO_vfwscanf+0x7300>
   64ac5:	mov    %edx,%eax
   64ac7:	add    -0x4c8(%rbp),%rax
   64ace:	add    $0x8,%edx
   64ad1:	mov    %edx,-0x4d8(%rbp)
   64ad7:	mov    (%rax),%rax
   64ada:	mov    %rax,-0x520(%rbp)
   64ae1:	cmpq   $0x0,-0x520(%rbp)
   64ae9:	je     6b2c1 <_IO_vfwscanf+0x72e1>
   64aef:	mov    $0x190,%edi
   64af4:	callq  1f998 <*ABS*+0x911b0@plt+0x18>
   64af9:	mov    -0x520(%rbp),%rsi
   64b00:	test   %rax,%rax
   64b03:	mov    %rax,(%rsi)
   64b06:	je     68b88 <_IO_vfwscanf+0x4ba8>
   64b0c:	mov    -0x510(%rbp),%rcx
   64b13:	test   %rcx,%rcx
   64b16:	je     6837b <_IO_vfwscanf+0x439b>
   64b1c:	mov    (%rcx),%rdx
   64b1f:	cmp    $0x20,%rdx
   64b23:	lea    0x1(%rdx),%rcx
   64b27:	je     6837b <_IO_vfwscanf+0x439b>
   64b2d:	mov    -0x510(%rbp),%rdi
   64b34:	mov    %rax,-0x578(%rbp)
   64b3b:	movq   $0x64,-0x550(%rbp)
   64b46:	mov    %rcx,(%rdi)
   64b49:	mov    -0x520(%rbp),%rcx
   64b50:	mov    %rcx,0x10(%rdi,%rdx,8)
   64b55:	cmp    $0xffffffff,%r15d
   64b59:	je     66b50 <_IO_vfwscanf+0x2b70>
   64b5f:	mov    0xa0(%r14),%rax
   64b66:	test   %rax,%rax
   64b69:	je     6730f <_IO_vfwscanf+0x332f>
   64b6f:	mov    (%rax),%rdx
   64b72:	cmp    0x8(%rax),%rdx
   64b76:	jae    6730f <_IO_vfwscanf+0x332f>
   64b7c:	lea    0x4(%rdx),%rcx
   64b80:	mov    (%rdx),%r15d
   64b83:	mov    %rcx,(%rax)
   64b86:	cmp    $0xffffffff,%r15d
   64b8a:	je     66edd <_IO_vfwscanf+0x2efd>
   64b90:	addq   $0x1,-0x4f8(%rbp)
   64b98:	mov    %r13d,%edi
   64b9b:	mov    %rbx,-0x538(%rbp)
   64ba2:	mov    -0x4f8(%rbp),%rax
   64ba9:	and    $0x2100,%edi
   64baf:	mov    %r13d,-0x4f8(%rbp)
   64bb6:	mov    %edi,-0x530(%rbp)
   64bbc:	mov    %r15d,%edi
   64bbf:	mov    -0x578(%rbp),%r13
   64bc6:	mov    %rax,%rbx
