// TC_OUT _Z15pfs_show_statusP10handlertonP3THDPFbS2_PKcmS4_mS4_mE12ha_stat_type,0xeea2e5,0xeea2ef,0x0(0x1e55db8)
// TC_OUT _Z15pfs_show_statusP10handlertonP3THDPFbS2_PKcmS4_mS4_mE12ha_stat_type,0xeea36d,0xeea377,0x0(0x1e55db8)
// TC_OUT _Z15pfs_show_statusP10handlertonP3THDPFbS2_PKcmS4_mS4_mE12ha_stat_type,0xeea3bc,0xeea3c6,0x0(0x1e55db8)
// TC_OUT _Z15pfs_show_statusP10handlertonP3THDPFbS2_PKcmS4_mS4_mE12ha_stat_type,0xeea3e7,0xeea3f1,0x0(0x1e55db8)
// TC_OUT _Z15pfs_show_statusP10handlertonP3THDPFbS2_PKcmS4_mS4_mE12ha_stat_type,0xeea434,0xeea43e,0x0(0x1e55db8)
// TC_OUT _Z15pfs_show_statusP10handlertonP3THDPFbS2_PKcmS4_mS4_mE12ha_stat_type,0xeea4a5,0xeea4af,0x0(0x1e55db8)
// TC_OUT _Z15pfs_show_statusP10handlertonP3THDPFbS2_PKcmS4_mS4_mE12ha_stat_type,0xeea4f4,0xeea4fe,0x0(0x1e55db8)
// TC_OUT _Z15pfs_show_statusP10handlertonP3THDPFbS2_PKcmS4_mS4_mE12ha_stat_type,0xeea51f,0xeea529,0x0(0x1e55db8)
// TC_OUT _Z15pfs_show_statusP10handlertonP3THDPFbS2_PKcmS4_mS4_mE12ha_stat_type,0xeea56c,0xeea576,0x0(0x1e55db8)
// TC_OUT _Z15pfs_show_statusP10handlertonP3THDPFbS2_PKcmS4_mS4_mE12ha_stat_type,0xeea5dd,0xeea5e7,0x0(0x1e632f8)
// TC_OUT _Z15pfs_show_statusP10handlertonP3THDPFbS2_PKcmS4_mS4_mE12ha_stat_type,0xeea60f,0xeea619,0x0(0x1e632f8)
// TC_OUT _Z15pfs_show_statusP10handlertonP3THDPFbS2_PKcmS4_mS4_mE12ha_stat_type,0xeea640,0xeea64a,0x0(0x1e5b218)
// TC_OUT _Z15pfs_show_statusP10handlertonP3THDPFbS2_PKcmS4_mS4_mE12ha_stat_type,0xeea66b,0xeea675,0x0(0x1e5b218)
// TC_OUT _Z15pfs_show_statusP10handlertonP3THDPFbS2_PKcmS4_mS4_mE12ha_stat_type,0xeea69c,0xeea6a6,0x0(0x1e56698)
// TC_OUT _Z15pfs_show_statusP10handlertonP3THDPFbS2_PKcmS4_mS4_mE12ha_stat_type,0xeea6d7,0xeea6e1,0x0(0x1e56698)
// TC_OUT _Z15pfs_show_statusP10handlertonP3THDPFbS2_PKcmS4_mS4_mE12ha_stat_type,0xeea713,0xeea71d,0x0(0x1e558d8)
// TC_OUT _Z15pfs_show_statusP10handlertonP3THDPFbS2_PKcmS4_mS4_mE12ha_stat_type,0xeea74e,0xeea758,0x0(0x1e558d8)
// TC_OUT _Z15pfs_show_statusP10handlertonP3THDPFbS2_PKcmS4_mS4_mE12ha_stat_type,0xeea78a,0xeea794,0x0(0x1e56b78)
// TC_OUT _Z15pfs_show_statusP10handlertonP3THDPFbS2_PKcmS4_mS4_mE12ha_stat_type,0xeea7c5,0xeea7cf,0x0(0x1e56b78)
// TC_OUT _Z15pfs_show_statusP10handlertonP3THDPFbS2_PKcmS4_mS4_mE12ha_stat_type,0xeea801,0xeea80b,0x0(0x1e55db8)
// TC_OUT _Z15pfs_show_statusP10handlertonP3THDPFbS2_PKcmS4_mS4_mE12ha_stat_type,0xeea83c,0xeea846,0x0(0x1e55db8)
// TC_OUT _Z15pfs_show_statusP10handlertonP3THDPFbS2_PKcmS4_mS4_mE12ha_stat_type,0xeea8ba,0xeea8c4,0x0(0x1e55db8)
// TC_OUT _Z15pfs_show_statusP10handlertonP3THDPFbS2_PKcmS4_mS4_mE12ha_stat_type,0xeea8f0,0xeea8fa,0x0(0x1e55db8)
// TC_OUT _Z15pfs_show_statusP10handlertonP3THDPFbS2_PKcmS4_mS4_mE12ha_stat_type,0xeea92c,0xeea936,0x0(0x1e81758)
// TC_OUT _Z15pfs_show_statusP10handlertonP3THDPFbS2_PKcmS4_mS4_mE12ha_stat_type,0xeea954,0xeea95e,0x0(0x1e81758)
// TC_OUT _Z15pfs_show_statusP10handlertonP3THDPFbS2_PKcmS4_mS4_mE12ha_stat_type,0xeea985,0xeea98f,0x0(0x1e56698)
// TC_OUT _Z15pfs_show_statusP10handlertonP3THDPFbS2_PKcmS4_mS4_mE12ha_stat_type,0xeea9bc,0xeea9c6,0x0(0x1e56698)
// TC_OUT _Z15pfs_show_statusP10handlertonP3THDPFbS2_PKcmS4_mS4_mE12ha_stat_type,0xeea9f8,0xeeaa02,0x0(0x1e558d8)
// TC_OUT _Z15pfs_show_statusP10handlertonP3THDPFbS2_PKcmS4_mS4_mE12ha_stat_type,0xeeaa2f,0xeeaa39,0x0(0x1e558d8)
// TC_OUT _Z15pfs_show_statusP10handlertonP3THDPFbS2_PKcmS4_mS4_mE12ha_stat_type,0xeeaa6b,0xeeaa75,0x0(0x1e56b78)
// TC_OUT _Z15pfs_show_statusP10handlertonP3THDPFbS2_PKcmS4_mS4_mE12ha_stat_type,0xeeaaa2,0xeeaaac,0x0(0x1e56b78)
// TC_OUT _Z15pfs_show_statusP10handlertonP3THDPFbS2_PKcmS4_mS4_mE12ha_stat_type,0xeeab21,0xeeab2b,0x0(0x1e55db8)
// TC_OUT _Z15pfs_show_statusP10handlertonP3THDPFbS2_PKcmS4_mS4_mE12ha_stat_type,0xeeab58,0xeeab62,0x0(0x1e55db8)
// TC_OUT _Z15pfs_show_statusP10handlertonP3THDPFbS2_PKcmS4_mS4_mE12ha_stat_type,0xeead2b,0xeead35,0x0(0x1e57058)
// TC_OUT _Z15pfs_show_statusP10handlertonP3THDPFbS2_PKcmS4_mS4_mE12ha_stat_type,0xeead5d,0xeead67,0x0(0x1e57058)
// TC_OUT _Z15pfs_show_statusP10handlertonP3THDPFbS2_PKcmS4_mS4_mE12ha_stat_type,0xeead8e,0xeead98,0x0(0x1e55db8)
// TC_OUT _Z15pfs_show_statusP10handlertonP3THDPFbS2_PKcmS4_mS4_mE12ha_stat_type,0xeeadd3,0xeeaddd,0x0(0x1e55db8)
// TC_OUT _Z15pfs_show_statusP10handlertonP3THDPFbS2_PKcmS4_mS4_mE12ha_stat_type,0xeeadf4,0xeeadfe,0x0(0x1e59138)
// TC_OUT _Z15pfs_show_statusP10handlertonP3THDPFbS2_PKcmS4_mS4_mE12ha_stat_type,0xeeae26,0xeeae30,0x0(0x1e59138)
// TC_OUT _Z15pfs_show_statusP10handlertonP3THDPFbS2_PKcmS4_mS4_mE12ha_stat_type,0xeeae96,0xeeaea0,0x0(0x1e83838)
// TC_OUT _Z15pfs_show_statusP10handlertonP3THDPFbS2_PKcmS4_mS4_mE12ha_stat_type,0xeeaec4,0xeeaece,0x0(0x1e83838)
// TC_OUT _Z15pfs_show_statusP10handlertonP3THDPFbS2_PKcmS4_mS4_mE12ha_stat_type,0xeeaf38,0xeeaf42,0x0(0x1e55db8)
// TC_OUT _Z15pfs_show_statusP10handlertonP3THDPFbS2_PKcmS4_mS4_mE12ha_stat_type,0xeeaf6d,0xeeaf77,0x0(0x1e55db8)
// TC_OUT _Z15pfs_show_statusP10handlertonP3THDPFbS2_PKcmS4_mS4_mE12ha_stat_type,0xeeafa8,0xeeafb2,0x0(0x1e56698)
// TC_OUT _Z15pfs_show_statusP10handlertonP3THDPFbS2_PKcmS4_mS4_mE12ha_stat_type,0xeeafde,0xeeafe8,0x0(0x1e56698)
// TC_OUT _Z15pfs_show_statusP10handlertonP3THDPFbS2_PKcmS4_mS4_mE12ha_stat_type,0xeeb01a,0xeeb024,0x0(0x1e558d8)
// TC_OUT _Z15pfs_show_statusP10handlertonP3THDPFbS2_PKcmS4_mS4_mE12ha_stat_type,0xeeb050,0xeeb05a,0x0(0x1e558d8)
// TC_OUT _Z15pfs_show_statusP10handlertonP3THDPFbS2_PKcmS4_mS4_mE12ha_stat_type,0xeeb08c,0xeeb096,0x0(0x1e56b78)
// TC_OUT _Z15pfs_show_statusP10handlertonP3THDPFbS2_PKcmS4_mS4_mE12ha_stat_type,0xeeb0c2,0xeeb0cc,0x0(0x1e56b78)
// TC_OUT _Z15pfs_show_statusP10handlertonP3THDPFbS2_PKcmS4_mS4_mE12ha_stat_type,0xeeb140,0xeeb14a,0x0(0x1e55db8)
// TC_OUT _Z15pfs_show_statusP10handlertonP3THDPFbS2_PKcmS4_mS4_mE12ha_stat_type,0xeeb176,0xeeb180,0x0(0x1e55db8)
// TC_OUT _Z15pfs_show_statusP10handlertonP3THDPFbS2_PKcmS4_mS4_mE12ha_stat_type,0xeeb1f4,0xeeb1fe,0x0(0x1e55db8)
// TC_OUT _Z15pfs_show_statusP10handlertonP3THDPFbS2_PKcmS4_mS4_mE12ha_stat_type,0xeeb22a,0xeeb234,0x0(0x1e55db8)
// TC_OUT _Z15pfs_show_statusP10handlertonP3THDPFbS2_PKcmS4_mS4_mE12ha_stat_type,0xeeb2a9,0xeeb2b3,0x0(0x1e56698)
// TC_OUT _Z15pfs_show_statusP10handlertonP3THDPFbS2_PKcmS4_mS4_mE12ha_stat_type,0xeeb2dc,0xeeb2e6,0x0(0x1e56698)
// TC_OUT _Z15pfs_show_statusP10handlertonP3THDPFbS2_PKcmS4_mS4_mE12ha_stat_type,0xeeb318,0xeeb322,0x0(0x1e558d8)
// TC_OUT _Z15pfs_show_statusP10handlertonP3THDPFbS2_PKcmS4_mS4_mE12ha_stat_type,0xeeb34b,0xeeb355,0x0(0x1e558d8)
// TC_OUT _Z15pfs_show_statusP10handlertonP3THDPFbS2_PKcmS4_mS4_mE12ha_stat_type,0xeeb387,0xeeb391,0x0(0x1e56b78)
// TC_OUT _Z15pfs_show_statusP10handlertonP3THDPFbS2_PKcmS4_mS4_mE12ha_stat_type,0xeeb3ba,0xeeb3c4,0x0(0x1e56b78)
// TC_OUT _Z15pfs_show_statusP10handlertonP3THDPFbS2_PKcmS4_mS4_mE12ha_stat_type,0xeeb435,0xeeb43f,0x0(0x1e55db8)
// TC_OUT _Z15pfs_show_statusP10handlertonP3THDPFbS2_PKcmS4_mS4_mE12ha_stat_type,0xeeb468,0xeeb472,0x0(0x1e55db8)
// TC_OUT _Z15pfs_show_statusP10handlertonP3THDPFbS2_PKcmS4_mS4_mE12ha_stat_type,0xeeb4eb,0xeeb4f5,0x0(0x1e55db8)
// TC_OUT _Z15pfs_show_statusP10handlertonP3THDPFbS2_PKcmS4_mS4_mE12ha_stat_type,0xeeb526,0xeeb530,0x0(0x1e55db8)
// TC_OUT _Z15pfs_show_statusP10handlertonP3THDPFbS2_PKcmS4_mS4_mE12ha_stat_type,0xeeb5a1,0xeeb5ab,0x0(0x1e56698)
// TC_OUT _Z15pfs_show_statusP10handlertonP3THDPFbS2_PKcmS4_mS4_mE12ha_stat_type,0xeeb5cf,0xeeb5d9,0x0(0x1e56698)
// TC_OUT _Z15pfs_show_statusP10handlertonP3THDPFbS2_PKcmS4_mS4_mE12ha_stat_type,0xeeb600,0xeeb60a,0x0(0x1e558d8)
// TC_OUT _Z15pfs_show_statusP10handlertonP3THDPFbS2_PKcmS4_mS4_mE12ha_stat_type,0xeeb62e,0xeeb638,0x0(0x1e558d8)
// TC_OUT _Z15pfs_show_statusP10handlertonP3THDPFbS2_PKcmS4_mS4_mE12ha_stat_type,0xeeb65f,0xeeb669,0x0(0x1e56698)
// TC_OUT _Z15pfs_show_statusP10handlertonP3THDPFbS2_PKcmS4_mS4_mE12ha_stat_type,0xeeb691,0xeeb69b,0x0(0x1e56698)
// TC_OUT _Z15pfs_show_statusP10handlertonP3THDPFbS2_PKcmS4_mS4_mE12ha_stat_type,0xeeb6cc,0xeeb6d6,0x0(0x1e558d8)
// TC_OUT _Z15pfs_show_statusP10handlertonP3THDPFbS2_PKcmS4_mS4_mE12ha_stat_type,0xeeb6fe,0xeeb708,0x0(0x1e558d8)
// TC_OUT _Z15pfs_show_statusP10handlertonP3THDPFbS2_PKcmS4_mS4_mE12ha_stat_type,0xeeb739,0xeeb743,0x0(0x1e56b78)
// TC_OUT _Z15pfs_show_statusP10handlertonP3THDPFbS2_PKcmS4_mS4_mE12ha_stat_type,0xeeb76b,0xeeb775,0x0(0x1e56b78)
// TC_OUT _Z15pfs_show_statusP10handlertonP3THDPFbS2_PKcmS4_mS4_mE12ha_stat_type,0xeeb7a6,0xeeb7b0,0x0(0x1e56b78)
// TC_OUT _Z15pfs_show_statusP10handlertonP3THDPFbS2_PKcmS4_mS4_mE12ha_stat_type,0xeeb7d8,0xeeb7e2,0x0(0x1e56b78)
// TC_OUT _Z15pfs_show_statusP10handlertonP3THDPFbS2_PKcmS4_mS4_mE12ha_stat_type,0xeeb809,0xeeb813,0x0(0x1e7d598)
// TC_OUT _Z15pfs_show_statusP10handlertonP3THDPFbS2_PKcmS4_mS4_mE12ha_stat_type,0xeeb83b,0xeeb845,0x0(0x1e7d598)
// TC_OUT _Z15pfs_show_statusP10handlertonP3THDPFbS2_PKcmS4_mS4_mE12ha_stat_type,0xeeb86c,0xeeb876,0x0(0x1e7f678)
// TC_OUT _Z15pfs_show_statusP10handlertonP3THDPFbS2_PKcmS4_mS4_mE12ha_stat_type,0xeeb89a,0xeeb8a4,0x0(0x1e7f678)
// TC_OUT _Z15pfs_show_statusP10handlertonP3THDPFbS2_PKcmS4_mS4_mE12ha_stat_type,0xeeb8cb,0xeeb8d5,0x0(0x1e7b4b8)
// TC_OUT _Z15pfs_show_statusP10handlertonP3THDPFbS2_PKcmS4_mS4_mE12ha_stat_type,0xeeb8f6,0xeeb900,0x0(0x1e7b4b8)
// TC_OUT _Z15pfs_show_statusP10handlertonP3THDPFbS2_PKcmS4_mS4_mE12ha_stat_type,0xeeb927,0xeeb931,0x0(0x1e733d8)
// TC_OUT _Z15pfs_show_statusP10handlertonP3THDPFbS2_PKcmS4_mS4_mE12ha_stat_type,0xeeb94f,0xeeb959,0x0(0x1e733d8)
// TC_OUT _Z15pfs_show_statusP10handlertonP3THDPFbS2_PKcmS4_mS4_mE12ha_stat_type,0xeeb980,0xeeb98a,0x0(0x1e55db8)
// TC_OUT _Z15pfs_show_statusP10handlertonP3THDPFbS2_PKcmS4_mS4_mE12ha_stat_type,0xeeb9b2,0xeeb9bc,0x0(0x1e55db8)
// TC_OUT _Z15pfs_show_statusP10handlertonP3THDPFbS2_PKcmS4_mS4_mE12ha_stat_type,0xeeba30,0xeeba3a,0x0(0x1e84118)
// TC_OUT _Z15pfs_show_statusP10handlertonP3THDPFbS2_PKcmS4_mS4_mE12ha_stat_type,0xeeba62,0xeeba6c,0x0(0x1e84118)
// TC_OUT _Z15pfs_show_statusP10handlertonP3THDPFbS2_PKcmS4_mS4_mE12ha_stat_type,0xeeba93,0xeeba9d,0x0(0x1e55db8)
// TC_OUT _Z15pfs_show_statusP10handlertonP3THDPFbS2_PKcmS4_mS4_mE12ha_stat_type,0xeebabe,0xeebac8,0x0(0x1e55db8)
// TC_OUT _Z15pfs_show_statusP10handlertonP3THDPFbS2_PKcmS4_mS4_mE12ha_stat_type,0xeebaef,0xeebaf9,0x0(0x1e8c1f8)
// TC_OUT _Z15pfs_show_statusP10handlertonP3THDPFbS2_PKcmS4_mS4_mE12ha_stat_type,0xeebb17,0xeebb21,0x0(0x1e8c1f8)
// TC_OUT _Z15pfs_show_statusP10handlertonP3THDPFbS2_PKcmS4_mS4_mE12ha_stat_type,0xeebb48,0xeebb52,0x0(0x1e8cad8)
// TC_OUT _Z15pfs_show_statusP10handlertonP3THDPFbS2_PKcmS4_mS4_mE12ha_stat_type,0xeebb70,0xeebb7a,0x0(0x1e8cad8)
// TC_OUT _Z15pfs_show_statusP10handlertonP3THDPFbS2_PKcmS4_mS4_mE12ha_stat_type,0xeebbba,0xeebbc1,0x58(%rcx)
// TC_OUT _Z15pfs_show_statusP10handlertonP3THDPFbS2_PKcmS4_mS4_mE12ha_stat_type,0xeebbfc,0xeebc03,0x58(%rcx)
// TC_OUT _Z15pfs_show_statusP10handlertonP3THDPFbS2_PKcmS4_mS4_mE12ha_stat_type,0xeebdb8,0xeebdc2,0x0(0x1e55db8)
// TC_OUT _Z15pfs_show_statusP10handlertonP3THDPFbS2_PKcmS4_mS4_mE12ha_stat_type,0xeebdf3,0xeebdfd,0x0(0x1e55db8)
###########################################################
# 11 atomic intrinsics
#   static inline int32 my_atomic_load32(int32 volatile *a)
#   {
#     return __atomic_load_n(a, __ATOMIC_SEQ_CST);
#   }
###############################################################
0000000000eea1f0 <_Z15pfs_show_statusP10handlertonP3THDPFbS2_PKcmS4_mS4_mE12ha_stat_type>:
  eea1f0:	push   %rbp
  eea1f1:	mov    %rsp,%rbp
  eea1f4:	push   %r15
  eea1f6:	push   %r14
  eea1f8:	push   %r13
  eea1fa:	push   %r12
  eea1fc:	push   %rbx
  eea1fd:	sub    $0x438,%rsp
  eea204:	mov    %rsi,-0x448(%rbp)
  eea20b:	mov    %fs:0x28,%rax
  eea214:	mov    %rax,-0x38(%rbp)
  eea218:	xor    %eax,%eax
  eea21a:	test   %ecx,%ecx
  eea21c:	jne    eea258 <_Z15pfs_show_statusP10handlertonP3THDPFbS2_PKcmS4_mS4_mE12ha_stat_type+0x68>
  eea21e:	lea    -0x440(%rbp),%rbx
  eea225:	mov    %rdx,%r14
  eea228:	movq   $0x0,-0x450(%rbp)
  eea233:	xor    %r15d,%r15d
  eea236:	nopw   %cs:0x0(%rax,%rax,1)
  eea240:	cmp    $0xe4,%r15d
  eea247:	ja     eea253 <_Z15pfs_show_statusP10handlertonP3THDPFbS2_PKcmS4_mS4_mE12ha_stat_type+0x63>
  eea249:	mov    %r15d,%eax
  eea24c:	jmpq   *0x15ccfa8(,%rax,8)
  eea253:	xor    %eax,%eax
  eea255:	nopl   (%rax)
  eea258:	mov    -0x38(%rbp),%rcx
  eea25c:	xor    %fs:0x28,%rcx
  eea265:	jne    eebe19 <_Z15pfs_show_statusP10handlertonP3THDPFbS2_PKcmS4_mS4_mE12ha_stat_type+0x1c29>
  eea26b:	add    $0x438,%rsp
  eea272:	pop    %rbx
  eea273:	pop    %r12
  eea275:	pop    %r13
  eea277:	pop    %r14
  eea279:	pop    %r15
  eea27b:	pop    %rbp
  eea27c:	retq   
  eea27d:	mov    $0xb0,%edi
  eea282:	mov    $0x15cae56,%r12d
  eea288:	nopl   0x0(%rax,%rax,1)
  eea290:	mov    $0xa,%edx
  eea295:	mov    %rbx,%rsi
  eea298:	callq  1311f40 <int10_to_str>
  eea29d:	mov    %r12,%rdi
  eea2a0:	mov    %rax,%r13
  eea2a3:	callq  762340 <strlen@plt>
  eea2a8:	mov    %r13d,%edx
  eea2ab:	mov    %rax,%r8
  eea2ae:	mov    %rbx,%r9
  eea2b1:	sub    %ebx,%edx
  eea2b3:	mov    %r12,%rcx
  eea2b6:	mov    0xeabdb3(%rip),%rsi        # 1d96070 <PERFORMANCE_SCHEMA_str>
  eea2bd:	mov    %rdx,(%rsp)
  eea2c1:	mov    -0x448(%rbp),%rdi
  eea2c8:	mov    0xeabda9(%rip),%rdx        # 1d96078 <PERFORMANCE_SCHEMA_str+0x8>
  eea2cf:	callq  *%r14
  eea2d2:	test   %al,%al
  eea2d4:	jne    eea258 <_Z15pfs_show_statusP10handlertonP3THDPFbS2_PKcmS4_mS4_mE12ha_stat_type+0x68>
  eea2d6:	add    $0x1,%r15d
  eea2da:	jmpq   eea240 <_Z15pfs_show_statusP10handlertonP3THDPFbS2_PKcmS4_mS4_mE12ha_stat_type+0x50>
  eea2df:	mov    0xf6bad3(%rip),%eax        # 1e55db8 <global_thread_container+0x58>
  eea2e5:	mov    %eax,%edx
  eea2e7:	lock cmpxchg %eax,0xf6bac9(%rip)        # 1e55db8 <global_thread_container+0x58>
  eea2ef:	jne    eea2e5 <_Z15pfs_show_statusP10handlertonP3THDPFbS2_PKcmS4_mS4_mE12ha_stat_type+0xf5>
  eea2f1:	mov    %edx,%eax
  eea2f3:	mov    $0x15cae3b,%r12d
  eea2f9:	lea    (%rax,%rax,2),%rdi
  eea2fd:	shl    $0x9,%rdi
  eea301:	jmp    eea290 <_Z15pfs_show_statusP10handlertonP3THDPFbS2_PKcmS4_mS4_mE12ha_stat_type+0xa0>
  eea303:	mov    $0xb0,%edi
  eea308:	mov    $0x15cae21,%r12d
  eea30e:	jmp    eea290 <_Z15pfs_show_statusP10handlertonP3THDPFbS2_PKcmS4_mS4_mE12ha_stat_type+0xa0>
  eea310:	mov    -0x450(%rbp),%rdi
  eea317:	mov    $0x15cb718,%r12d
  eea31d:	jmpq   eea290 <_Z15pfs_show_statusP10handlertonP3THDPFbS2_PKcmS4_mS4_mE12ha_stat_type+0xa0>
  eea322:	mov    0xfaad37(%rip),%rdi        # 1e95060 <pfs_max_digest_length>
  eea329:	mov    $0x15ccf80,%r12d
  eea32f:	imul   0xfaa109(%rip),%rdi        # 1e94440 <digest_max>
  eea337:	add    %rdi,-0x450(%rbp)
  eea33e:	jmpq   eea290 <_Z15pfs_show_statusP10handlertonP3THDPFbS2_PKcmS4_mS4_mE12ha_stat_type+0xa0>
  eea343:	mov    0xfaad16(%rip),%rdi        # 1e95060 <pfs_max_digest_length>
  eea34a:	mov    $0x15ccf58,%r12d
  eea350:	jmpq   eea290 <_Z15pfs_show_statusP10handlertonP3THDPFbS2_PKcmS4_mS4_mE12ha_stat_type+0xa0>
  eea355:	mov    0xfaa0e4(%rip),%rdi        # 1e94440 <digest_max>
  eea35c:	mov    $0x15ccf30,%r12d
  eea362:	jmpq   eea290 <_Z15pfs_show_statusP10handlertonP3THDPFbS2_PKcmS4_mS4_mE12ha_stat_type+0xa0>
  eea367:	mov    0xf6ba4b(%rip),%eax        # 1e55db8 <global_thread_container+0x58>
  eea36d:	mov    %eax,%edx
  eea36f:	lock cmpxchg %eax,0xf6ba41(%rip)        # 1e55db8 <global_thread_container+0x58>
  eea377:	jne    eea36d <_Z15pfs_show_statusP10handlertonP3THDPFbS2_PKcmS4_mS4_mE12ha_stat_type+0x17d>
  eea379:	mov    0xfaacd0(%rip),%rdi        # 1e95050 <pfs_max_sqltext>
  eea380:	mov    0xfaacea(%rip),%eax        # 1e95070 <statement_stack_max>
  eea386:	mov    $0x15ccf08,%r12d
  eea38c:	shl    $0x8,%rdi
  eea390:	imul   %rax,%rdi
  eea394:	imul   %rdx,%rdi
  eea398:	add    %rdi,-0x450(%rbp)
  eea39f:	jmpq   eea290 <_Z15pfs_show_statusP10handlertonP3THDPFbS2_PKcmS4_mS4_mE12ha_stat_type+0xa0>
  eea3a4:	mov    0xfaaca5(%rip),%rdi        # 1e95050 <pfs_max_sqltext>
  eea3ab:	mov    $0x15ccee0,%r12d
  eea3b1:	jmpq   eea290 <_Z15pfs_show_statusP10handlertonP3THDPFbS2_PKcmS4_mS4_mE12ha_stat_type+0xa0>
  eea3b6:	mov    0xf6b9fc(%rip),%eax        # 1e55db8 <global_thread_container+0x58>
  eea3bc:	mov    %eax,%edx
  eea3be:	lock cmpxchg %eax,0xf6b9f2(%rip)        # 1e55db8 <global_thread_container+0x58>
  eea3c6:	jne    eea3bc <_Z15pfs_show_statusP10handlertonP3THDPFbS2_PKcmS4_mS4_mE12ha_stat_type+0x1cc>
  eea3c8:	mov    0xfaaca2(%rip),%edi        # 1e95070 <statement_stack_max>
  eea3ce:	mov    $0x15cceb8,%r12d
  eea3d4:	shl    $0x8,%rdi
  eea3d8:	imul   %rdx,%rdi
  eea3dc:	jmpq   eea290 <_Z15pfs_show_statusP10handlertonP3THDPFbS2_PKcmS4_mS4_mE12ha_stat_type+0xa0>
  eea3e1:	mov    0xf6b9d1(%rip),%eax        # 1e55db8 <global_thread_container+0x58>
  eea3e7:	mov    %eax,%edx
  eea3e9:	lock cmpxchg %eax,0xf6b9c7(%rip)        # 1e55db8 <global_thread_container+0x58>
  eea3f1:	jne    eea3e7 <_Z15pfs_show_statusP10handlertonP3THDPFbS2_PKcmS4_mS4_mE12ha_stat_type+0x1f7>
  eea3f3:	mov    0xfaac86(%rip),%rdi        # 1e95080 <events_statements_history_per_thread>
  eea3fa:	mov    $0x15cce90,%r12d
  eea400:	imul   0xfaac48(%rip),%rdi        # 1e95050 <pfs_max_sqltext>
  eea408:	shl    $0x8,%rdi
  eea40c:	imul   %rdx,%rdi
  eea410:	add    %rdi,-0x450(%rbp)
  eea417:	jmpq   eea290 <_Z15pfs_show_statusP10handlertonP3THDPFbS2_PKcmS4_mS4_mE12ha_stat_type+0xa0>
  eea41c:	mov    0xfaac2d(%rip),%rdi        # 1e95050 <pfs_max_sqltext>
  eea423:	mov    $0x15cce68,%r12d
  eea429:	jmpq   eea290 <_Z15pfs_show_statusP10handlertonP3THDPFbS2_PKcmS4_mS4_mE12ha_stat_type+0xa0>
  eea42e:	mov    0xf6b984(%rip),%eax        # 1e55db8 <global_thread_container+0x58>
  eea434:	mov    %eax,%edx
  eea436:	lock cmpxchg %eax,0xf6b97a(%rip)        # 1e55db8 <global_thread_container+0x58>
  eea43e:	jne    eea434 <_Z15pfs_show_statusP10handlertonP3THDPFbS2_PKcmS4_mS4_mE12ha_stat_type+0x244>
  eea440:	mov    0xfaac39(%rip),%rdi        # 1e95080 <events_statements_history_per_thread>
  eea447:	mov    $0x15cce40,%r12d
  eea44d:	shl    $0x8,%rdi
  eea451:	imul   %rdx,%rdi
  eea455:	jmpq   eea290 <_Z15pfs_show_statusP10handlertonP3THDPFbS2_PKcmS4_mS4_mE12ha_stat_type+0xa0>
  eea45a:	mov    0xfaabef(%rip),%rdi        # 1e95050 <pfs_max_sqltext>
  eea461:	mov    $0x15cce10,%r12d
  eea467:	imul   0xfaa4d1(%rip),%rdi        # 1e94940 <events_statements_history_long_size>
  eea46f:	add    %rdi,-0x450(%rbp)
  eea476:	jmpq   eea290 <_Z15pfs_show_statusP10handlertonP3THDPFbS2_PKcmS4_mS4_mE12ha_stat_type+0xa0>
  eea47b:	mov    0xfaabce(%rip),%rdi        # 1e95050 <pfs_max_sqltext>
  eea482:	mov    $0x15ccde0,%r12d
  eea488:	jmpq   eea290 <_Z15pfs_show_statusP10handlertonP3THDPFbS2_PKcmS4_mS4_mE12ha_stat_type+0xa0>
  eea48d:	mov    0xfaa4ac(%rip),%rdi        # 1e94940 <events_statements_history_long_size>
  eea494:	mov    $0x15ccdb0,%r12d
  eea49a:	jmpq   eea290 <_Z15pfs_show_statusP10handlertonP3THDPFbS2_PKcmS4_mS4_mE12ha_stat_type+0xa0>
  eea49f:	mov    0xf6b913(%rip),%eax        # 1e55db8 <global_thread_container+0x58>
  eea4a5:	mov    %eax,%edx
  eea4a7:	lock cmpxchg %eax,0xf6b909(%rip)        # 1e55db8 <global_thread_container+0x58>
  eea4af:	jne    eea4a5 <_Z15pfs_show_statusP10handlertonP3THDPFbS2_PKcmS4_mS4_mE12ha_stat_type+0x2b5>
  eea4b1:	mov    0xfaaba8(%rip),%rdi        # 1e95060 <pfs_max_digest_length>
  eea4b8:	mov    0xfaabb2(%rip),%eax        # 1e95070 <statement_stack_max>
  eea4be:	mov    $0x15ccd80,%r12d
  eea4c4:	shl    $0x8,%rdi
  eea4c8:	imul   %rax,%rdi
  eea4cc:	imul   %rdx,%rdi
  eea4d0:	add    %rdi,-0x450(%rbp)
  eea4d7:	jmpq   eea290 <_Z15pfs_show_statusP10handlertonP3THDPFbS2_PKcmS4_mS4_mE12ha_stat_type+0xa0>
  eea4dc:	mov    0xfaab7d(%rip),%rdi        # 1e95060 <pfs_max_digest_length>
  eea4e3:	mov    $0x15ccd50,%r12d
  eea4e9:	jmpq   eea290 <_Z15pfs_show_statusP10handlertonP3THDPFbS2_PKcmS4_mS4_mE12ha_stat_type+0xa0>
  eea4ee:	mov    0xf6b8c4(%rip),%eax        # 1e55db8 <global_thread_container+0x58>
  eea4f4:	mov    %eax,%edx
  eea4f6:	lock cmpxchg %eax,0xf6b8ba(%rip)        # 1e55db8 <global_thread_container+0x58>
  eea4fe:	jne    eea4f4 <_Z15pfs_show_statusP10handlertonP3THDPFbS2_PKcmS4_mS4_mE12ha_stat_type+0x304>
  eea500:	mov    0xfaab6a(%rip),%edi        # 1e95070 <statement_stack_max>
  eea506:	mov    $0x15ccd20,%r12d
  eea50c:	shl    $0x8,%rdi
  eea510:	imul   %rdx,%rdi
  eea514:	jmpq   eea290 <_Z15pfs_show_statusP10handlertonP3THDPFbS2_PKcmS4_mS4_mE12ha_stat_type+0xa0>
  eea519:	mov    0xf6b899(%rip),%eax        # 1e55db8 <global_thread_container+0x58>
  eea51f:	mov    %eax,%edx
  eea521:	lock cmpxchg %eax,0xf6b88f(%rip)        # 1e55db8 <global_thread_container+0x58>
  eea529:	jne    eea51f <_Z15pfs_show_statusP10handlertonP3THDPFbS2_PKcmS4_mS4_mE12ha_stat_type+0x32f>
  eea52b:	mov    0xfaab4e(%rip),%rdi        # 1e95080 <events_statements_history_per_thread>
  eea532:	mov    $0x15cccf0,%r12d
  eea538:	imul   0xfaab20(%rip),%rdi        # 1e95060 <pfs_max_digest_length>
  eea540:	shl    $0x8,%rdi
  eea544:	imul   %rdx,%rdi
  eea548:	add    %rdi,-0x450(%rbp)
  eea54f:	jmpq   eea290 <_Z15pfs_show_statusP10handlertonP3THDPFbS2_PKcmS4_mS4_mE12ha_stat_type+0xa0>
  eea554:	mov    0xfaab05(%rip),%rdi        # 1e95060 <pfs_max_digest_length>
  eea55b:	mov    $0x15cccc0,%r12d
  eea561:	jmpq   eea290 <_Z15pfs_show_statusP10handlertonP3THDPFbS2_PKcmS4_mS4_mE12ha_stat_type+0xa0>
  eea566:	mov    0xf6b84c(%rip),%eax        # 1e55db8 <global_thread_container+0x58>
  eea56c:	mov    %eax,%edx
  eea56e:	lock cmpxchg %eax,0xf6b842(%rip)        # 1e55db8 <global_thread_container+0x58>
  eea576:	jne    eea56c <_Z15pfs_show_statusP10handlertonP3THDPFbS2_PKcmS4_mS4_mE12ha_stat_type+0x37c>
  eea578:	mov    0xfaab01(%rip),%rdi        # 1e95080 <events_statements_history_per_thread>
  eea57f:	mov    $0x15ccc90,%r12d
  eea585:	shl    $0x8,%rdi
  eea589:	imul   %rdx,%rdi
  eea58d:	jmpq   eea290 <_Z15pfs_show_statusP10handlertonP3THDPFbS2_PKcmS4_mS4_mE12ha_stat_type+0xa0>
  eea592:	mov    0xfaaac7(%rip),%rdi        # 1e95060 <pfs_max_digest_length>
  eea599:	mov    $0x15ccc58,%r12d
  eea59f:	imul   0xfaa399(%rip),%rdi        # 1e94940 <events_statements_history_long_size>
  eea5a7:	add    %rdi,-0x450(%rbp)
  eea5ae:	jmpq   eea290 <_Z15pfs_show_statusP10handlertonP3THDPFbS2_PKcmS4_mS4_mE12ha_stat_type+0xa0>
  eea5b3:	mov    0xfaaaa6(%rip),%rdi        # 1e95060 <pfs_max_digest_length>
  eea5ba:	mov    $0x15ccc20,%r12d
  eea5c0:	jmpq   eea290 <_Z15pfs_show_statusP10handlertonP3THDPFbS2_PKcmS4_mS4_mE12ha_stat_type+0xa0>
  eea5c5:	mov    0xfaa374(%rip),%rdi        # 1e94940 <events_statements_history_long_size>
  eea5cc:	mov    $0x15ccbe8,%r12d
  eea5d2:	jmpq   eea290 <_Z15pfs_show_statusP10handlertonP3THDPFbS2_PKcmS4_mS4_mE12ha_stat_type+0xa0>
  eea5d7:	mov    0xf78d1b(%rip),%eax        # 1e632f8 <global_table_share_index_container+0x58>
  eea5dd:	mov    %eax,%edx
  eea5df:	lock cmpxchg %eax,0xf78d11(%rip)        # 1e632f8 <global_table_share_index_container+0x58>
  eea5e7:	jne    eea5dd <_Z15pfs_show_statusP10handlertonP3THDPFbS2_PKcmS4_mS4_mE12ha_stat_type+0x3ed>
  eea5e9:	mov    %edx,%eax
  eea5eb:	mov    $0x15ccbb8,%r12d
  eea5f1:	lea    (%rax,%rax,4),%rdx
  eea5f5:	lea    (%rax,%rdx,2),%rdi
  eea5f9:	shl    $0x12,%rdi
  eea5fd:	add    %rdi,-0x450(%rbp)
  eea604:	jmpq   eea290 <_Z15pfs_show_statusP10handlertonP3THDPFbS2_PKcmS4_mS4_mE12ha_stat_type+0xa0>
  eea609:	mov    0xf78ce9(%rip),%eax        # 1e632f8 <global_table_share_index_container+0x58>
  eea60f:	mov    %eax,%edi
  eea611:	lock cmpxchg %eax,0xf78cdf(%rip)        # 1e632f8 <global_table_share_index_container+0x58>
  eea619:	jne    eea60f <_Z15pfs_show_statusP10handlertonP3THDPFbS2_PKcmS4_mS4_mE12ha_stat_type+0x41f>
  eea61b:	shl    $0xd,%rdi
  eea61f:	mov    $0x15ccb88,%r12d
  eea625:	jmpq   eea290 <_Z15pfs_show_statusP10handlertonP3THDPFbS2_PKcmS4_mS4_mE12ha_stat_type+0xa0>
  eea62a:	mov    $0x160,%edi
  eea62f:	mov    $0x15ccb58,%r12d
  eea635:	jmpq   eea290 <_Z15pfs_show_statusP10handlertonP3THDPFbS2_PKcmS4_mS4_mE12ha_stat_type+0xa0>
  eea63a:	mov    0xf70bd8(%rip),%eax        # 1e5b218 <global_table_share_lock_container+0x58>
  eea640:	mov    %eax,%edx
  eea642:	lock cmpxchg %eax,0xf70bce(%rip)        # 1e5b218 <global_table_share_lock_container+0x58>
  eea64a:	jne    eea640 <_Z15pfs_show_statusP10handlertonP3THDPFbS2_PKcmS4_mS4_mE12ha_stat_type+0x450>
  eea64c:	imul   $0x158000,%rdx,%rdi
  eea653:	mov    $0x15ccb28,%r12d
  eea659:	add    %rdi,-0x450(%rbp)
  eea660:	jmpq   eea290 <_Z15pfs_show_statusP10handlertonP3THDPFbS2_PKcmS4_mS4_mE12ha_stat_type+0xa0>
  eea665:	mov    0xf70bad(%rip),%eax        # 1e5b218 <global_table_share_lock_container+0x58>
  eea66b:	mov    %eax,%edi
  eea66d:	lock cmpxchg %eax,0xf70ba3(%rip)        # 1e5b218 <global_table_share_lock_container+0x58>
  eea675:	jne    eea66b <_Z15pfs_show_statusP10handlertonP3THDPFbS2_PKcmS4_mS4_mE12ha_stat_type+0x47b>
  eea677:	shl    $0xc,%rdi
  eea67b:	mov    $0x15ccb00,%r12d
  eea681:	jmpq   eea290 <_Z15pfs_show_statusP10handlertonP3THDPFbS2_PKcmS4_mS4_mE12ha_stat_type+0xa0>
  eea686:	mov    $0x158,%edi
  eea68b:	mov    $0x15ccad8,%r12d
  eea691:	jmpq   eea290 <_Z15pfs_show_statusP10handlertonP3THDPFbS2_PKcmS4_mS4_mE12ha_stat_type+0xa0>
  eea696:	mov    0xf6bffc(%rip),%eax        # 1e56698 <global_host_container+0x58>
  eea69c:	mov    %eax,%edx
  eea69e:	lock cmpxchg %eax,0xf6bff2(%rip)        # 1e56698 <global_host_container+0x58>
  eea6a6:	jne    eea69c <_Z15pfs_show_statusP10handlertonP3THDPFbS2_PKcmS4_mS4_mE12ha_stat_type+0x4ac>
  eea6a8:	mov    0xfab319(%rip),%rax        # 1e959c8 <transaction_class_max>
  eea6af:	mov    $0x15cca98,%r12d
  eea6b5:	lea    (%rax,%rax,4),%rcx
  eea6b9:	lea    (%rax,%rcx,2),%rdi
  eea6bd:	shl    $0xa,%rdi
  eea6c1:	imul   %rdx,%rdi
  eea6c5:	add    %rdi,-0x450(%rbp)
  eea6cc:	jmpq   eea290 <_Z15pfs_show_statusP10handlertonP3THDPFbS2_PKcmS4_mS4_mE12ha_stat_type+0xa0>
  eea6d1:	mov    0xf6bfc1(%rip),%eax        # 1e56698 <global_host_container+0x58>
  eea6d7:	mov    %eax,%edx
  eea6d9:	lock cmpxchg %eax,0xf6bfb7(%rip)        # 1e56698 <global_host_container+0x58>
  eea6e1:	jne    eea6d7 <_Z15pfs_show_statusP10handlertonP3THDPFbS2_PKcmS4_mS4_mE12ha_stat_type+0x4e7>
  eea6e3:	mov    0xfab2de(%rip),%rdi        # 1e959c8 <transaction_class_max>
  eea6ea:	mov    $0x15cca60,%r12d
  eea6f0:	shl    $0x7,%rdi
  eea6f4:	imul   %rdx,%rdi
  eea6f8:	jmpq   eea290 <_Z15pfs_show_statusP10handlertonP3THDPFbS2_PKcmS4_mS4_mE12ha_stat_type+0xa0>
  eea6fd:	mov    $0x58,%edi
  eea702:	mov    $0x15cca28,%r12d
  eea708:	jmpq   eea290 <_Z15pfs_show_statusP10handlertonP3THDPFbS2_PKcmS4_mS4_mE12ha_stat_type+0xa0>
  eea70d:	mov    0xf6b1c5(%rip),%eax        # 1e558d8 <global_user_container+0x58>
  eea713:	mov    %eax,%edx
  eea715:	lock cmpxchg %eax,0xf6b1bb(%rip)        # 1e558d8 <global_user_container+0x58>
  eea71d:	jne    eea713 <_Z15pfs_show_statusP10handlertonP3THDPFbS2_PKcmS4_mS4_mE12ha_stat_type+0x523>
  eea71f:	mov    0xfab2a2(%rip),%rax        # 1e959c8 <transaction_class_max>
  eea726:	mov    $0x15cc9e8,%r12d
  eea72c:	lea    (%rax,%rax,4),%rcx
  eea730:	lea    (%rax,%rcx,2),%rdi
  eea734:	shl    $0xa,%rdi
  eea738:	imul   %rdx,%rdi
  eea73c:	add    %rdi,-0x450(%rbp)
  eea743:	jmpq   eea290 <_Z15pfs_show_statusP10handlertonP3THDPFbS2_PKcmS4_mS4_mE12ha_stat_type+0xa0>
  eea748:	mov    0xf6b18a(%rip),%eax        # 1e558d8 <global_user_container+0x58>
  eea74e:	mov    %eax,%edx
  eea750:	lock cmpxchg %eax,0xf6b180(%rip)        # 1e558d8 <global_user_container+0x58>
  eea758:	jne    eea74e <_Z15pfs_show_statusP10handlertonP3THDPFbS2_PKcmS4_mS4_mE12ha_stat_type+0x55e>
  eea75a:	mov    0xfab267(%rip),%rdi        # 1e959c8 <transaction_class_max>
  eea761:	mov    $0x15cc9b0,%r12d
  eea767:	shl    $0x7,%rdi
  eea76b:	imul   %rdx,%rdi
  eea76f:	jmpq   eea290 <_Z15pfs_show_statusP10handlertonP3THDPFbS2_PKcmS4_mS4_mE12ha_stat_type+0xa0>
  eea774:	mov    $0x58,%edi
  eea779:	mov    $0x15cc978,%r12d
  eea77f:	jmpq   eea290 <_Z15pfs_show_statusP10handlertonP3THDPFbS2_PKcmS4_mS4_mE12ha_stat_type+0xa0>
  eea784:	mov    0xf6c3ee(%rip),%eax        # 1e56b78 <global_account_container+0x58>
  eea78a:	mov    %eax,%edx
  eea78c:	lock cmpxchg %eax,0xf6c3e4(%rip)        # 1e56b78 <global_account_container+0x58>
  eea794:	jne    eea78a <_Z15pfs_show_statusP10handlertonP3THDPFbS2_PKcmS4_mS4_mE12ha_stat_type+0x59a>
  eea796:	mov    0xfab22b(%rip),%rax        # 1e959c8 <transaction_class_max>
  eea79d:	mov    $0x15cc938,%r12d
  eea7a3:	lea    (%rax,%rax,4),%rcx
  eea7a7:	lea    (%rax,%rcx,2),%rdi
  eea7ab:	shl    $0xa,%rdi
  eea7af:	imul   %rdx,%rdi
  eea7b3:	add    %rdi,-0x450(%rbp)
  eea7ba:	jmpq   eea290 <_Z15pfs_show_statusP10handlertonP3THDPFbS2_PKcmS4_mS4_mE12ha_stat_type+0xa0>
  eea7bf:	mov    0xf6c3b3(%rip),%eax        # 1e56b78 <global_account_container+0x58>
  eea7c5:	mov    %eax,%edx
  eea7c7:	lock cmpxchg %eax,0xf6c3a9(%rip)        # 1e56b78 <global_account_container+0x58>
  eea7cf:	jne    eea7c5 <_Z15pfs_show_statusP10handlertonP3THDPFbS2_PKcmS4_mS4_mE12ha_stat_type+0x5d5>
  eea7d1:	mov    0xfab1f0(%rip),%rdi        # 1e959c8 <transaction_class_max>
  eea7d8:	mov    $0x15cc8f8,%r12d
  eea7de:	shl    $0x7,%rdi
  eea7e2:	imul   %rdx,%rdi
  eea7e6:	jmpq   eea290 <_Z15pfs_show_statusP10handlertonP3THDPFbS2_PKcmS4_mS4_mE12ha_stat_type+0xa0>
  eea7eb:	mov    $0x58,%edi
  eea7f0:	mov    $0x15cc8b8,%r12d
  eea7f6:	jmpq   eea290 <_Z15pfs_show_statusP10handlertonP3THDPFbS2_PKcmS4_mS4_mE12ha_stat_type+0xa0>
  eea7fb:	mov    0xf6b5b7(%rip),%eax        # 1e55db8 <global_thread_container+0x58>
  eea801:	mov    %eax,%edx
  eea803:	lock cmpxchg %eax,0xf6b5ad(%rip)        # 1e55db8 <global_thread_container+0x58>
  eea80b:	jne    eea801 <_Z15pfs_show_statusP10handlertonP3THDPFbS2_PKcmS4_mS4_mE12ha_stat_type+0x611>
  eea80d:	mov    0xfab1b4(%rip),%rax        # 1e959c8 <transaction_class_max>
  eea814:	mov    $0x15cc878,%r12d
  eea81a:	lea    (%rax,%rax,4),%rcx
  eea81e:	lea    (%rax,%rcx,2),%rdi
  eea822:	shl    $0xb,%rdi
  eea826:	imul   %rdx,%rdi
  eea82a:	add    %rdi,-0x450(%rbp)
  eea831:	jmpq   eea290 <_Z15pfs_show_statusP10handlertonP3THDPFbS2_PKcmS4_mS4_mE12ha_stat_type+0xa0>
  eea836:	mov    0xf6b57c(%rip),%eax        # 1e55db8 <global_thread_container+0x58>
  eea83c:	mov    %eax,%edx
  eea83e:	lock cmpxchg %eax,0xf6b572(%rip)        # 1e55db8 <global_thread_container+0x58>
  eea846:	jne    eea83c <_Z15pfs_show_statusP10handlertonP3THDPFbS2_PKcmS4_mS4_mE12ha_stat_type+0x64c>
  eea848:	mov    0xfab179(%rip),%rdi        # 1e959c8 <transaction_class_max>
  eea84f:	mov    $0x15cc838,%r12d
  eea855:	shl    $0x8,%rdi
  eea859:	imul   %rdx,%rdi
  eea85d:	jmpq   eea290 <_Z15pfs_show_statusP10handlertonP3THDPFbS2_PKcmS4_mS4_mE12ha_stat_type+0xa0>
  eea862:	mov    $0x58,%edi
  eea867:	mov    $0x15cc7f8,%r12d
  eea86d:	jmpq   eea290 <_Z15pfs_show_statusP10handlertonP3THDPFbS2_PKcmS4_mS4_mE12ha_stat_type+0xa0>
  eea872:	mov    0xfaa287(%rip),%rax        # 1e94b00 <events_transactions_history_long_size>
  eea879:	mov    $0x15cc7d0,%r12d
  eea87f:	imul   $0x158,%rax,%rdi
  eea886:	add    %rdi,-0x450(%rbp)
  eea88d:	jmpq   eea290 <_Z15pfs_show_statusP10handlertonP3THDPFbS2_PKcmS4_mS4_mE12ha_stat_type+0xa0>
  eea892:	mov    0xfaa267(%rip),%rdi        # 1e94b00 <events_transactions_history_long_size>
  eea899:	mov    $0x15cc7a8,%r12d
  eea89f:	jmpq   eea290 <_Z15pfs_show_statusP10handlertonP3THDPFbS2_PKcmS4_mS4_mE12ha_stat_type+0xa0>
  eea8a4:	mov    $0x158,%edi
  eea8a9:	mov    $0x15cc780,%r12d
  eea8af:	jmpq   eea290 <_Z15pfs_show_statusP10handlertonP3THDPFbS2_PKcmS4_mS4_mE12ha_stat_type+0xa0>
  eea8b4:	mov    0xf6b4fe(%rip),%eax        # 1e55db8 <global_thread_container+0x58>
  eea8ba:	mov    %eax,%edx
  eea8bc:	lock cmpxchg %eax,0xf6b4f4(%rip)        # 1e55db8 <global_thread_container+0x58>
  eea8c4:	jne    eea8ba <_Z15pfs_show_statusP10handlertonP3THDPFbS2_PKcmS4_mS4_mE12ha_stat_type+0x6ca>
  eea8c6:	mov    0xfaa743(%rip),%rcx        # 1e95010 <events_transactions_history_per_thread>
  eea8cd:	mov    $0x15cc758,%r12d
  eea8d3:	imul   $0x15800,%rcx,%rdi
  eea8da:	imul   %rdx,%rdi
  eea8de:	add    %rdi,-0x450(%rbp)
  eea8e5:	jmpq   eea290 <_Z15pfs_show_statusP10handlertonP3THDPFbS2_PKcmS4_mS4_mE12ha_stat_type+0xa0>
  eea8ea:	mov    0xf6b4c8(%rip),%eax        # 1e55db8 <global_thread_container+0x58>
  eea8f0:	mov    %eax,%edx
  eea8f2:	lock cmpxchg %eax,0xf6b4be(%rip)        # 1e55db8 <global_thread_container+0x58>
  eea8fa:	jne    eea8f0 <_Z15pfs_show_statusP10handlertonP3THDPFbS2_PKcmS4_mS4_mE12ha_stat_type+0x700>
  eea8fc:	mov    0xfaa70d(%rip),%rdi        # 1e95010 <events_transactions_history_per_thread>
  eea903:	mov    $0x15cc730,%r12d
  eea909:	shl    $0x8,%rdi
  eea90d:	imul   %rdx,%rdi
  eea911:	jmpq   eea290 <_Z15pfs_show_statusP10handlertonP3THDPFbS2_PKcmS4_mS4_mE12ha_stat_type+0xa0>
  eea916:	mov    $0x158,%edi
  eea91b:	mov    $0x15cc708,%r12d
  eea921:	jmpq   eea290 <_Z15pfs_show_statusP10handlertonP3THDPFbS2_PKcmS4_mS4_mE12ha_stat_type+0xa0>
  eea926:	mov    0xf96e2c(%rip),%eax        # 1e81758 <global_mdl_container+0x58>
  eea92c:	mov    %eax,%edi
  eea92e:	lock cmpxchg %eax,0xf96e22(%rip)        # 1e81758 <global_mdl_container+0x58>
  eea936:	jne    eea92c <_Z15pfs_show_statusP10handlertonP3THDPFbS2_PKcmS4_mS4_mE12ha_stat_type+0x73c>
  eea938:	shl    $0x13,%rdi
  eea93c:	mov    $0x15cb702,%r12d
  eea942:	add    %rdi,-0x450(%rbp)
  eea949:	jmpq   eea290 <_Z15pfs_show_statusP10handlertonP3THDPFbS2_PKcmS4_mS4_mE12ha_stat_type+0xa0>
  eea94e:	mov    0xf96e04(%rip),%eax        # 1e81758 <global_mdl_container+0x58>
  eea954:	mov    %eax,%edi
  eea956:	lock cmpxchg %eax,0xf96dfa(%rip)        # 1e81758 <global_mdl_container+0x58>
  eea95e:	jne    eea954 <_Z15pfs_show_statusP10handlertonP3THDPFbS2_PKcmS4_mS4_mE12ha_stat_type+0x764>
  eea960:	shl    $0xa,%rdi
  eea964:	mov    $0x15cb6e9,%r12d
  eea96a:	jmpq   eea290 <_Z15pfs_show_statusP10handlertonP3THDPFbS2_PKcmS4_mS4_mE12ha_stat_type+0xa0>
  eea96f:	mov    $0x200,%edi
  eea974:	mov    $0x15cb6d1,%r12d
  eea97a:	jmpq   eea290 <_Z15pfs_show_statusP10handlertonP3THDPFbS2_PKcmS4_mS4_mE12ha_stat_type+0xa0>
  eea97f:	mov    0xf6bd13(%rip),%eax        # 1e56698 <global_host_container+0x58>
  eea985:	mov    %eax,%edx
  eea987:	lock cmpxchg %eax,0xf6bd09(%rip)        # 1e56698 <global_host_container+0x58>
  eea98f:	jne    eea985 <_Z15pfs_show_statusP10handlertonP3THDPFbS2_PKcmS4_mS4_mE12ha_stat_type+0x795>
  eea991:	mov    0xfab048(%rip),%rax        # 1e959e0 <memory_class_max>
  eea998:	mov    $0x15cc6d8,%r12d
  eea99e:	lea    (%rax,%rax,8),%rdi
  eea9a2:	shl    $0xa,%rdi
  eea9a6:	imul   %rdx,%rdi
  eea9aa:	add    %rdi,-0x450(%rbp)
  eea9b1:	jmpq   eea290 <_Z15pfs_show_statusP10handlertonP3THDPFbS2_PKcmS4_mS4_mE12ha_stat_type+0xa0>
  eea9b6:	mov    0xf6bcdc(%rip),%eax        # 1e56698 <global_host_container+0x58>
  eea9bc:	mov    %eax,%edx
  eea9be:	lock cmpxchg %eax,0xf6bcd2(%rip)        # 1e56698 <global_host_container+0x58>
  eea9c6:	jne    eea9bc <_Z15pfs_show_statusP10handlertonP3THDPFbS2_PKcmS4_mS4_mE12ha_stat_type+0x7cc>
  eea9c8:	mov    0xfab011(%rip),%rdi        # 1e959e0 <memory_class_max>
  eea9cf:	mov    $0x15cc6a8,%r12d
  eea9d5:	shl    $0x7,%rdi
  eea9d9:	imul   %rdx,%rdi
  eea9dd:	jmpq   eea290 <_Z15pfs_show_statusP10handlertonP3THDPFbS2_PKcmS4_mS4_mE12ha_stat_type+0xa0>
  eea9e2:	mov    $0x48,%edi
  eea9e7:	mov    $0x15cc678,%r12d
  eea9ed:	jmpq   eea290 <_Z15pfs_show_statusP10handlertonP3THDPFbS2_PKcmS4_mS4_mE12ha_stat_type+0xa0>
  eea9f2:	mov    0xf6aee0(%rip),%eax        # 1e558d8 <global_user_container+0x58>
  eea9f8:	mov    %eax,%edx
  eea9fa:	lock cmpxchg %eax,0xf6aed6(%rip)        # 1e558d8 <global_user_container+0x58>
  eeaa02:	jne    eea9f8 <_Z15pfs_show_statusP10handlertonP3THDPFbS2_PKcmS4_mS4_mE12ha_stat_type+0x808>
  eeaa04:	mov    0xfaafd5(%rip),%rax        # 1e959e0 <memory_class_max>
  eeaa0b:	mov    $0x15cc648,%r12d
  eeaa11:	lea    (%rax,%rax,8),%rdi
  eeaa15:	shl    $0xa,%rdi
  eeaa19:	imul   %rdx,%rdi
  eeaa1d:	add    %rdi,-0x450(%rbp)
  eeaa24:	jmpq   eea290 <_Z15pfs_show_statusP10handlertonP3THDPFbS2_PKcmS4_mS4_mE12ha_stat_type+0xa0>
  eeaa29:	mov    0xf6aea9(%rip),%eax        # 1e558d8 <global_user_container+0x58>
  eeaa2f:	mov    %eax,%edx
  eeaa31:	lock cmpxchg %eax,0xf6ae9f(%rip)        # 1e558d8 <global_user_container+0x58>
  eeaa39:	jne    eeaa2f <_Z15pfs_show_statusP10handlertonP3THDPFbS2_PKcmS4_mS4_mE12ha_stat_type+0x83f>
  eeaa3b:	mov    0xfaaf9e(%rip),%rdi        # 1e959e0 <memory_class_max>
  eeaa42:	mov    $0x15cc618,%r12d
  eeaa48:	shl    $0x7,%rdi
  eeaa4c:	imul   %rdx,%rdi
  eeaa50:	jmpq   eea290 <_Z15pfs_show_statusP10handlertonP3THDPFbS2_PKcmS4_mS4_mE12ha_stat_type+0xa0>
  eeaa55:	mov    $0x48,%edi
  eeaa5a:	mov    $0x15cc5e8,%r12d
  eeaa60:	jmpq   eea290 <_Z15pfs_show_statusP10handlertonP3THDPFbS2_PKcmS4_mS4_mE12ha_stat_type+0xa0>
  eeaa65:	mov    0xf6c10d(%rip),%eax        # 1e56b78 <global_account_container+0x58>
  eeaa6b:	mov    %eax,%edx
  eeaa6d:	lock cmpxchg %eax,0xf6c103(%rip)        # 1e56b78 <global_account_container+0x58>
  eeaa75:	jne    eeaa6b <_Z15pfs_show_statusP10handlertonP3THDPFbS2_PKcmS4_mS4_mE12ha_stat_type+0x87b>
  eeaa77:	mov    0xfaaf62(%rip),%rax        # 1e959e0 <memory_class_max>
  eeaa7e:	mov    $0x15cc5b8,%r12d
  eeaa84:	lea    (%rax,%rax,8),%rdi
  eeaa88:	shl    $0xa,%rdi
  eeaa8c:	imul   %rdx,%rdi
  eeaa90:	add    %rdi,-0x450(%rbp)
  eeaa97:	jmpq   eea290 <_Z15pfs_show_statusP10handlertonP3THDPFbS2_PKcmS4_mS4_mE12ha_stat_type+0xa0>
  eeaa9c:	mov    0xf6c0d6(%rip),%eax        # 1e56b78 <global_account_container+0x58>
  eeaaa2:	mov    %eax,%edx
  eeaaa4:	lock cmpxchg %eax,0xf6c0cc(%rip)        # 1e56b78 <global_account_container+0x58>
  eeaaac:	jne    eeaaa2 <_Z15pfs_show_statusP10handlertonP3THDPFbS2_PKcmS4_mS4_mE12ha_stat_type+0x8b2>
  eeaaae:	mov    0xfaaf2b(%rip),%rdi        # 1e959e0 <memory_class_max>
  eeaab5:	mov    $0x15cc580,%r12d
  eeaabb:	shl    $0x7,%rdi
  eeaabf:	imul   %rdx,%rdi
  eeaac3:	jmpq   eea290 <_Z15pfs_show_statusP10handlertonP3THDPFbS2_PKcmS4_mS4_mE12ha_stat_type+0xa0>
  eeaac8:	mov    $0x48,%edi
  eeaacd:	mov    $0x15cc548,%r12d
  eeaad3:	jmpq   eea290 <_Z15pfs_show_statusP10handlertonP3THDPFbS2_PKcmS4_mS4_mE12ha_stat_type+0xa0>
  eeaad8:	mov    0xfaaf01(%rip),%rax        # 1e959e0 <memory_class_max>
  eeaadf:	mov    $0x15cc518,%r12d
  eeaae5:	lea    (%rax,%rax,8),%rdi
  eeaae9:	shl    $0x3,%rdi
  eeaaed:	add    %rdi,-0x450(%rbp)
  eeaaf4:	jmpq   eea290 <_Z15pfs_show_statusP10handlertonP3THDPFbS2_PKcmS4_mS4_mE12ha_stat_type+0xa0>
  eeaaf9:	mov    0xfaaee0(%rip),%rdi        # 1e959e0 <memory_class_max>
  eeab00:	mov    $0x15cc4e8,%r12d
  eeab06:	jmpq   eea290 <_Z15pfs_show_statusP10handlertonP3THDPFbS2_PKcmS4_mS4_mE12ha_stat_type+0xa0>
  eeab0b:	mov    $0x48,%edi
  eeab10:	mov    $0x15cc4b8,%r12d
  eeab16:	jmpq   eea290 <_Z15pfs_show_statusP10handlertonP3THDPFbS2_PKcmS4_mS4_mE12ha_stat_type+0xa0>
  eeab1b:	mov    0xf6b297(%rip),%eax        # 1e55db8 <global_thread_container+0x58>
  eeab21:	mov    %eax,%edx
  eeab23:	lock cmpxchg %eax,0xf6b28d(%rip)        # 1e55db8 <global_thread_container+0x58>
  eeab2b:	jne    eeab21 <_Z15pfs_show_statusP10handlertonP3THDPFbS2_PKcmS4_mS4_mE12ha_stat_type+0x931>
  eeab2d:	mov    0xfaaeac(%rip),%rax        # 1e959e0 <memory_class_max>
  eeab34:	mov    $0x15cc488,%r12d
  eeab3a:	lea    (%rax,%rax,8),%rdi
  eeab3e:	shl    $0xb,%rdi
  eeab42:	imul   %rdx,%rdi
  eeab46:	add    %rdi,-0x450(%rbp)
  eeab4d:	jmpq   eea290 <_Z15pfs_show_statusP10handlertonP3THDPFbS2_PKcmS4_mS4_mE12ha_stat_type+0xa0>
  eeab52:	mov    0xf6b260(%rip),%eax        # 1e55db8 <global_thread_container+0x58>
  eeab58:	mov    %eax,%edx
  eeab5a:	lock cmpxchg %eax,0xf6b256(%rip)        # 1e55db8 <global_thread_container+0x58>
  eeab62:	jne    eeab58 <_Z15pfs_show_statusP10handlertonP3THDPFbS2_PKcmS4_mS4_mE12ha_stat_type+0x968>
  eeab64:	mov    0xfaae75(%rip),%rdi        # 1e959e0 <memory_class_max>
  eeab6b:	mov    $0x15cc450,%r12d
  eeab71:	shl    $0x8,%rdi
  eeab75:	imul   %rdx,%rdi
  eeab79:	jmpq   eea290 <_Z15pfs_show_statusP10handlertonP3THDPFbS2_PKcmS4_mS4_mE12ha_stat_type+0xa0>
  eeab7e:	mov    $0x48,%edi
  eeab83:	mov    $0x15cc420,%r12d
  eeab89:	jmpq   eea290 <_Z15pfs_show_statusP10handlertonP3THDPFbS2_PKcmS4_mS4_mE12ha_stat_type+0xa0>
  eeab8e:	mov    0xfaae4b(%rip),%rax        # 1e959e0 <memory_class_max>
  eeab95:	mov    $0x15cb6b7,%r12d
  eeab9b:	lea    (%rax,%rax,2),%rdi
  eeab9f:	shl    $0x6,%rdi
  eeaba3:	add    %rdi,-0x450(%rbp)
  eeabaa:	jmpq   eea290 <_Z15pfs_show_statusP10handlertonP3THDPFbS2_PKcmS4_mS4_mE12ha_stat_type+0xa0>
  eeabaf:	mov    0xfaae2a(%rip),%rdi        # 1e959e0 <memory_class_max>
  eeabb6:	mov    $0x15cb69a,%r12d
  eeabbc:	jmpq   eea290 <_Z15pfs_show_statusP10handlertonP3THDPFbS2_PKcmS4_mS4_mE12ha_stat_type+0xa0>
  eeabc1:	mov    $0xc0,%edi
  eeabc6:	mov    $0x15cb67e,%r12d
  eeabcc:	jmpq   eea290 <_Z15pfs_show_statusP10handlertonP3THDPFbS2_PKcmS4_mS4_mE12ha_stat_type+0xa0>
  eeabd1:	mov    $0x150,%edi
  eeabd6:	mov    $0x15cb66e,%r12d
  eeabdc:	jmpq   eea290 <_Z15pfs_show_statusP10handlertonP3THDPFbS2_PKcmS4_mS4_mE12ha_stat_type+0xa0>
  eeabe1:	movslq 0xfa99b0(%rip),%rdi        # 1e94598 <program_hash+0xb8>
  eeabe8:	mov    $0x15cb65a,%r12d
  eeabee:	jmpq   eea290 <_Z15pfs_show_statusP10handlertonP3THDPFbS2_PKcmS4_mS4_mE12ha_stat_type+0xa0>
  eeabf3:	movslq 0xfa99a2(%rip),%rdi        # 1e9459c <program_hash+0xbc>
  eeabfa:	mov    $0x15cb645,%r12d
  eeac00:	jmpq   eea290 <_Z15pfs_show_statusP10handlertonP3THDPFbS2_PKcmS4_mS4_mE12ha_stat_type+0xa0>
  eeac05:	movslq 0xfada2c(%rip),%rdi        # 1e98638 <user_hash+0xb8>
  eeac0c:	mov    $0x15cb634,%r12d
  eeac12:	jmpq   eea290 <_Z15pfs_show_statusP10handlertonP3THDPFbS2_PKcmS4_mS4_mE12ha_stat_type+0xa0>
  eeac17:	movslq 0xfada1e(%rip),%rdi        # 1e9863c <user_hash+0xbc>
  eeac1e:	mov    $0x15cb622,%r12d
  eeac24:	jmpq   eea290 <_Z15pfs_show_statusP10handlertonP3THDPFbS2_PKcmS4_mS4_mE12ha_stat_type+0xa0>
  eeac29:	movslq 0xfaa688(%rip),%rdi        # 1e952b8 <table_share_hash+0xb8>
  eeac30:	mov    $0x15cb60a,%r12d
  eeac36:	jmpq   eea290 <_Z15pfs_show_statusP10handlertonP3THDPFbS2_PKcmS4_mS4_mE12ha_stat_type+0xa0>
  eeac3b:	movslq 0xfaa67a(%rip),%rdi        # 1e952bc <table_share_hash+0xbc>
  eeac42:	mov    $0x15cb5f1,%r12d
  eeac48:	jmpq   eea290 <_Z15pfs_show_statusP10handlertonP3THDPFbS2_PKcmS4_mS4_mE12ha_stat_type+0xa0>
  eeac4d:	movslq 0xfad744(%rip),%rdi        # 1e98398 <setup_object_hash+0xb8>
  eeac54:	mov    $0x15cb5d8,%r12d
  eeac5a:	jmpq   eea290 <_Z15pfs_show_statusP10handlertonP3THDPFbS2_PKcmS4_mS4_mE12ha_stat_type+0xa0>
  eeac5f:	movslq 0xfad736(%rip),%rdi        # 1e9839c <setup_object_hash+0xbc>
  eeac66:	mov    $0x15cb5be,%r12d
  eeac6c:	jmpq   eea290 <_Z15pfs_show_statusP10handlertonP3THDPFbS2_PKcmS4_mS4_mE12ha_stat_type+0xa0>
  eeac71:	movslq 0xfad640(%rip),%rdi        # 1e982b8 <setup_actor_hash+0xb8>
  eeac78:	mov    $0x15cb5a6,%r12d
  eeac7e:	jmpq   eea290 <_Z15pfs_show_statusP10handlertonP3THDPFbS2_PKcmS4_mS4_mE12ha_stat_type+0xa0>
  eeac83:	movslq 0xfad632(%rip),%rdi        # 1e982bc <setup_actor_hash+0xbc>
  eeac8a:	mov    $0x15cb58d,%r12d
  eeac90:	jmpq   eea290 <_Z15pfs_show_statusP10handlertonP3THDPFbS2_PKcmS4_mS4_mE12ha_stat_type+0xa0>
  eeac95:	movslq 0xfaa19c(%rip),%rdi        # 1e94e38 <host_hash+0xb8>
  eeac9c:	mov    $0x15cb57c,%r12d
  eeaca2:	jmpq   eea290 <_Z15pfs_show_statusP10handlertonP3THDPFbS2_PKcmS4_mS4_mE12ha_stat_type+0xa0>
  eeaca7:	movslq 0xfaa18e(%rip),%rdi        # 1e94e3c <host_hash+0xbc>
  eeacae:	mov    $0x15cb56a,%r12d
  eeacb4:	jmpq   eea290 <_Z15pfs_show_statusP10handlertonP3THDPFbS2_PKcmS4_mS4_mE12ha_stat_type+0xa0>
  eeacb9:	movslq 0xfaa2f8(%rip),%rdi        # 1e94fb8 <filename_hash+0xb8>
  eeacc0:	mov    $0x15cb555,%r12d
  eeacc6:	jmpq   eea290 <_Z15pfs_show_statusP10handlertonP3THDPFbS2_PKcmS4_mS4_mE12ha_stat_type+0xa0>
  eeaccb:	movslq 0xfaa2ea(%rip),%rdi        # 1e94fbc <filename_hash+0xbc>
  eeacd2:	mov    $0x15cb53f,%r12d
  eeacd8:	jmpq   eea290 <_Z15pfs_show_statusP10handlertonP3THDPFbS2_PKcmS4_mS4_mE12ha_stat_type+0xa0>
  eeacdd:	movslq 0xfa9714(%rip),%rdi        # 1e943f8 <digest_hash+0xb8>
  eeace4:	mov    $0x15cb52c,%r12d
  eeacea:	jmpq   eea290 <_Z15pfs_show_statusP10handlertonP3THDPFbS2_PKcmS4_mS4_mE12ha_stat_type+0xa0>
  eeacef:	movslq 0xfa9706(%rip),%rdi        # 1e943fc <digest_hash+0xbc>
  eeacf6:	mov    $0x15cb518,%r12d
  eeacfc:	jmpq   eea290 <_Z15pfs_show_statusP10handlertonP3THDPFbS2_PKcmS4_mS4_mE12ha_stat_type+0xa0>
  eead01:	movslq 0xfb2490(%rip),%rdi        # 1e9d198 <account_hash+0xb8>
  eead08:	mov    $0x15cb504,%r12d
  eead0e:	jmpq   eea290 <_Z15pfs_show_statusP10handlertonP3THDPFbS2_PKcmS4_mS4_mE12ha_stat_type+0xa0>
  eead13:	movslq 0xfb2482(%rip),%rdi        # 1e9d19c <account_hash+0xbc>
  eead1a:	mov    $0x15cb4ef,%r12d
  eead20:	jmpq   eea290 <_Z15pfs_show_statusP10handlertonP3THDPFbS2_PKcmS4_mS4_mE12ha_stat_type+0xa0>
  eead25:	mov    0xf6c32d(%rip),%eax        # 1e57058 <global_prepared_stmt_container+0x58>
  eead2b:	mov    %eax,%edx
  eead2d:	lock cmpxchg %eax,0xf6c323(%rip)        # 1e57058 <global_prepared_stmt_container+0x58>
  eead35:	jne    eead2b <_Z15pfs_show_statusP10handlertonP3THDPFbS2_PKcmS4_mS4_mE12ha_stat_type+0xb3b>
  eead37:	mov    %edx,%eax
  eead39:	mov    $0x15cc3f8,%r12d
  eead3f:	lea    (%rax,%rax,2),%rdx
  eead43:	lea    (%rax,%rdx,4),%rdi
  eead47:	shl    $0x11,%rdi
  eead4b:	add    %rdi,-0x450(%rbp)
  eead52:	jmpq   eea290 <_Z15pfs_show_statusP10handlertonP3THDPFbS2_PKcmS4_mS4_mE12ha_stat_type+0xa0>
  eead57:	mov    0xf6c2fb(%rip),%eax        # 1e57058 <global_prepared_stmt_container+0x58>
  eead5d:	mov    %eax,%edi
  eead5f:	lock cmpxchg %eax,0xf6c2f1(%rip)        # 1e57058 <global_prepared_stmt_container+0x58>
  eead67:	jne    eead5d <_Z15pfs_show_statusP10handlertonP3THDPFbS2_PKcmS4_mS4_mE12ha_stat_type+0xb6d>
  eead69:	shl    $0xa,%rdi
  eead6d:	mov    $0x15cc3d0,%r12d
  eead73:	jmpq   eea290 <_Z15pfs_show_statusP10handlertonP3THDPFbS2_PKcmS4_mS4_mE12ha_stat_type+0xa0>
  eead78:	mov    $0x680,%edi
  eead7d:	mov    $0x15cc3a8,%r12d
  eead83:	jmpq   eea290 <_Z15pfs_show_statusP10handlertonP3THDPFbS2_PKcmS4_mS4_mE12ha_stat_type+0xa0>
  eead88:	mov    0xf6b02a(%rip),%eax        # 1e55db8 <global_thread_container+0x58>
  eead8e:	mov    %eax,%edx
  eead90:	lock cmpxchg %eax,0xf6b020(%rip)        # 1e55db8 <global_thread_container+0x58>
  eead98:	jne    eead8e <_Z15pfs_show_statusP10handlertonP3THDPFbS2_PKcmS4_mS4_mE12ha_stat_type+0xb9e>
  eead9a:	mov    0xfaa28f(%rip),%rdi        # 1e95030 <session_connect_attrs_size_per_thread>
  eeada1:	mov    $0x15cb4d2,%r12d
  eeada7:	shl    $0x8,%rdi
  eeadab:	imul   %rdx,%rdi
  eeadaf:	add    %rdi,-0x450(%rbp)
  eeadb6:	jmpq   eea290 <_Z15pfs_show_statusP10handlertonP3THDPFbS2_PKcmS4_mS4_mE12ha_stat_type+0xa0>
  eeadbb:	mov    0xfaa26e(%rip),%rdi        # 1e95030 <session_connect_attrs_size_per_thread>
  eeadc2:	mov    $0x15cb4b6,%r12d
  eeadc8:	jmpq   eea290 <_Z15pfs_show_statusP10handlertonP3THDPFbS2_PKcmS4_mS4_mE12ha_stat_type+0xa0>
  eeadcd:	mov    0xf6afe5(%rip),%eax        # 1e55db8 <global_thread_container+0x58>
  eeadd3:	mov    %eax,%edi
  eeadd5:	lock cmpxchg %eax,0xf6afdb(%rip)        # 1e55db8 <global_thread_container+0x58>
  eeaddd:	jne    eeadd3 <_Z15pfs_show_statusP10handlertonP3THDPFbS2_PKcmS4_mS4_mE12ha_stat_type+0xbe3>
  eeaddf:	shl    $0x8,%rdi
  eeade3:	mov    $0x15cb49b,%r12d
  eeade9:	jmpq   eea290 <_Z15pfs_show_statusP10handlertonP3THDPFbS2_PKcmS4_mS4_mE12ha_stat_type+0xa0>
  eeadee:	mov    0xf6e344(%rip),%eax        # 1e59138 <global_program_container+0x58>
  eeadf4:	mov    %eax,%edi
  eeadf6:	lock cmpxchg %eax,0xf6e33a(%rip)        # 1e59138 <global_program_container+0x58>
  eeadfe:	jne    eeadf4 <_Z15pfs_show_statusP10handlertonP3THDPFbS2_PKcmS4_mS4_mE12ha_stat_type+0xc04>
  eeae00:	mov    %rdi,%rax
  eeae03:	shl    $0x13,%rdi
  eeae07:	mov    $0x15cc378,%r12d
  eeae0d:	shl    $0x10,%rax
  eeae11:	sub    %rax,%rdi
  eeae14:	add    %rdi,-0x450(%rbp)
  eeae1b:	jmpq   eea290 <_Z15pfs_show_statusP10handlertonP3THDPFbS2_PKcmS4_mS4_mE12ha_stat_type+0xa0>
  eeae20:	mov    0xf6e312(%rip),%eax        # 1e59138 <global_program_container+0x58>
  eeae26:	mov    %eax,%edi
  eeae28:	lock cmpxchg %eax,0xf6e308(%rip)        # 1e59138 <global_program_container+0x58>
  eeae30:	jne    eeae26 <_Z15pfs_show_statusP10handlertonP3THDPFbS2_PKcmS4_mS4_mE12ha_stat_type+0xc36>
  eeae32:	shl    $0xa,%rdi
  eeae36:	mov    $0x15cc348,%r12d
  eeae3c:	jmpq   eea290 <_Z15pfs_show_statusP10handlertonP3THDPFbS2_PKcmS4_mS4_mE12ha_stat_type+0xa0>
  eeae41:	mov    $0x1c0,%edi
  eeae46:	mov    $0x15cc318,%r12d
  eeae4c:	jmpq   eea290 <_Z15pfs_show_statusP10handlertonP3THDPFbS2_PKcmS4_mS4_mE12ha_stat_type+0xa0>
  eeae51:	mov    0xfa95e8(%rip),%rdi        # 1e94440 <digest_max>
  eeae58:	mov    $0x15cc2e8,%r12d
  eeae5e:	shl    $0x9,%rdi
  eeae62:	add    %rdi,-0x450(%rbp)
  eeae69:	jmpq   eea290 <_Z15pfs_show_statusP10handlertonP3THDPFbS2_PKcmS4_mS4_mE12ha_stat_type+0xa0>
  eeae6e:	mov    0xfa95cb(%rip),%rdi        # 1e94440 <digest_max>
  eeae75:	mov    $0x15cc2b8,%r12d
  eeae7b:	jmpq   eea290 <_Z15pfs_show_statusP10handlertonP3THDPFbS2_PKcmS4_mS4_mE12ha_stat_type+0xa0>
  eeae80:	mov    $0x200,%edi
  eeae85:	mov    $0x15cc288,%r12d
  eeae8b:	jmpq   eea290 <_Z15pfs_show_statusP10handlertonP3THDPFbS2_PKcmS4_mS4_mE12ha_stat_type+0xa0>
  eeae90:	mov    0xf989a2(%rip),%eax        # 1e83838 <global_socket_container+0x58>
  eeae96:	mov    %eax,%edx
  eeae98:	lock cmpxchg %eax,0xf98998(%rip)        # 1e83838 <global_socket_container+0x58>
  eeaea0:	jne    eeae96 <_Z15pfs_show_statusP10handlertonP3THDPFbS2_PKcmS4_mS4_mE12ha_stat_type+0xca6>
  eeaea2:	mov    %edx,%eax
  eeaea4:	mov    $0x15cb483,%r12d
  eeaeaa:	lea    (%rax,%rax,4),%rdi
  eeaeae:	shl    $0xe,%rdi
  eeaeb2:	add    %rdi,-0x450(%rbp)
  eeaeb9:	jmpq   eea290 <_Z15pfs_show_statusP10handlertonP3THDPFbS2_PKcmS4_mS4_mE12ha_stat_type+0xa0>
  eeaebe:	mov    0xf98974(%rip),%eax        # 1e83838 <global_socket_container+0x58>
  eeaec4:	mov    %eax,%edi
  eeaec6:	lock cmpxchg %eax,0xf9896a(%rip)        # 1e83838 <global_socket_container+0x58>
  eeaece:	jne    eeaec4 <_Z15pfs_show_statusP10handlertonP3THDPFbS2_PKcmS4_mS4_mE12ha_stat_type+0xcd4>
  eeaed0:	shl    $0x8,%rdi
  eeaed4:	mov    $0x15cb46c,%r12d
  eeaeda:	jmpq   eea290 <_Z15pfs_show_statusP10handlertonP3THDPFbS2_PKcmS4_mS4_mE12ha_stat_type+0xa0>
  eeaedf:	mov    $0x140,%edi
  eeaee4:	mov    $0x15cb456,%r12d
  eeaeea:	jmpq   eea290 <_Z15pfs_show_statusP10handlertonP3THDPFbS2_PKcmS4_mS4_mE12ha_stat_type+0xa0>
  eeaeef:	mov    0xfaab0a(%rip),%rax        # 1e95a00 <socket_class_max>
  eeaef6:	mov    $0x15cb43c,%r12d
  eeaefc:	lea    (%rax,%rax,4),%rdi
  eeaf00:	shl    $0x6,%rdi
  eeaf04:	add    %rdi,-0x450(%rbp)
  eeaf0b:	jmpq   eea290 <_Z15pfs_show_statusP10handlertonP3THDPFbS2_PKcmS4_mS4_mE12ha_stat_type+0xa0>
  eeaf10:	mov    0xfaaae9(%rip),%rdi        # 1e95a00 <socket_class_max>
  eeaf17:	mov    $0x15cb423,%r12d
  eeaf1d:	jmpq   eea290 <_Z15pfs_show_statusP10handlertonP3THDPFbS2_PKcmS4_mS4_mE12ha_stat_type+0xa0>
  eeaf22:	mov    $0x140,%edi
  eeaf27:	mov    $0x15cb40b,%r12d
  eeaf2d:	jmpq   eea290 <_Z15pfs_show_statusP10handlertonP3THDPFbS2_PKcmS4_mS4_mE12ha_stat_type+0xa0>
  eeaf32:	mov    0xf6ae80(%rip),%eax        # 1e55db8 <global_thread_container+0x58>
  eeaf38:	mov    %eax,%edx
  eeaf3a:	lock cmpxchg %eax,0xf6ae76(%rip)        # 1e55db8 <global_thread_container+0x58>
  eeaf42:	jne    eeaf38 <_Z15pfs_show_statusP10handlertonP3THDPFbS2_PKcmS4_mS4_mE12ha_stat_type+0xd48>
  eeaf44:	mov    0xfaa126(%rip),%edi        # 1e95070 <statement_stack_max>
  eeaf4a:	mov    $0x15cc260,%r12d
  eeaf50:	imul   $0x59800,%rdi,%rdi
  eeaf57:	imul   %rdx,%rdi
  eeaf5b:	add    %rdi,-0x450(%rbp)
  eeaf62:	jmpq   eea290 <_Z15pfs_show_statusP10handlertonP3THDPFbS2_PKcmS4_mS4_mE12ha_stat_type+0xa0>
  eeaf67:	mov    0xf6ae4b(%rip),%eax        # 1e55db8 <global_thread_container+0x58>
  eeaf6d:	mov    %eax,%edx
  eeaf6f:	lock cmpxchg %eax,0xf6ae41(%rip)        # 1e55db8 <global_thread_container+0x58>
  eeaf77:	jne    eeaf6d <_Z15pfs_show_statusP10handlertonP3THDPFbS2_PKcmS4_mS4_mE12ha_stat_type+0xd7d>
  eeaf79:	mov    0xfaa0f1(%rip),%edi        # 1e95070 <statement_stack_max>
  eeaf7f:	mov    $0x15cc240,%r12d
  eeaf85:	shl    $0x8,%rdi
  eeaf89:	imul   %rdx,%rdi
  eeaf8d:	jmpq   eea290 <_Z15pfs_show_statusP10handlertonP3THDPFbS2_PKcmS4_mS4_mE12ha_stat_type+0xa0>
  eeaf92:	mov    $0x598,%edi
  eeaf97:	mov    $0x15cc220,%r12d
  eeaf9d:	jmpq   eea290 <_Z15pfs_show_statusP10handlertonP3THDPFbS2_PKcmS4_mS4_mE12ha_stat_type+0xa0>
  eeafa2:	mov    0xf6b6f0(%rip),%eax        # 1e56698 <global_host_container+0x58>
  eeafa8:	mov    %eax,%edx
  eeafaa:	lock cmpxchg %eax,0xf6b6e6(%rip)        # 1e56698 <global_host_container+0x58>
  eeafb2:	jne    eeafa8 <_Z15pfs_show_statusP10handlertonP3THDPFbS2_PKcmS4_mS4_mE12ha_stat_type+0xdb8>
  eeafb4:	mov    0xfaaa65(%rip),%rsi        # 1e95a20 <statement_class_max>
  eeafbb:	mov    $0x15cc1e8,%r12d
  eeafc1:	imul   $0x5c00,%rsi,%rdi
  eeafc8:	imul   %rdx,%rdi
  eeafcc:	add    %rdi,-0x450(%rbp)
  eeafd3:	jmpq   eea290 <_Z15pfs_show_statusP10handlertonP3THDPFbS2_PKcmS4_mS4_mE12ha_stat_type+0xa0>
  eeafd8:	mov    0xf6b6ba(%rip),%eax        # 1e56698 <global_host_container+0x58>
  eeafde:	mov    %eax,%edx
  eeafe0:	lock cmpxchg %eax,0xf6b6b0(%rip)        # 1e56698 <global_host_container+0x58>
  eeafe8:	jne    eeafde <_Z15pfs_show_statusP10handlertonP3THDPFbS2_PKcmS4_mS4_mE12ha_stat_type+0xdee>
  eeafea:	mov    0xfaaa2f(%rip),%rdi        # 1e95a20 <statement_class_max>
  eeaff1:	mov    $0x15cc1b0,%r12d
  eeaff7:	shl    $0x7,%rdi
  eeaffb:	imul   %rdx,%rdi
  eeafff:	jmpq   eea290 <_Z15pfs_show_statusP10handlertonP3THDPFbS2_PKcmS4_mS4_mE12ha_stat_type+0xa0>
  eeb004:	mov    $0xb8,%edi
  eeb009:	mov    $0x15cc178,%r12d
  eeb00f:	jmpq   eea290 <_Z15pfs_show_statusP10handlertonP3THDPFbS2_PKcmS4_mS4_mE12ha_stat_type+0xa0>
  eeb014:	mov    0xf6a8be(%rip),%eax        # 1e558d8 <global_user_container+0x58>
  eeb01a:	mov    %eax,%edx
  eeb01c:	lock cmpxchg %eax,0xf6a8b4(%rip)        # 1e558d8 <global_user_container+0x58>
  eeb024:	jne    eeb01a <_Z15pfs_show_statusP10handlertonP3THDPFbS2_PKcmS4_mS4_mE12ha_stat_type+0xe2a>
  eeb026:	mov    0xfaa9f3(%rip),%rdi        # 1e95a20 <statement_class_max>
  eeb02d:	mov    $0x15cc140,%r12d
  eeb033:	imul   $0x5c00,%rdi,%rdi
  eeb03a:	imul   %rdx,%rdi
  eeb03e:	add    %rdi,-0x450(%rbp)
  eeb045:	jmpq   eea290 <_Z15pfs_show_statusP10handlertonP3THDPFbS2_PKcmS4_mS4_mE12ha_stat_type+0xa0>
  eeb04a:	mov    0xf6a888(%rip),%eax        # 1e558d8 <global_user_container+0x58>
  eeb050:	mov    %eax,%edx
  eeb052:	lock cmpxchg %eax,0xf6a87e(%rip)        # 1e558d8 <global_user_container+0x58>
  eeb05a:	jne    eeb050 <_Z15pfs_show_statusP10handlertonP3THDPFbS2_PKcmS4_mS4_mE12ha_stat_type+0xe60>
  eeb05c:	mov    0xfaa9bd(%rip),%rdi        # 1e95a20 <statement_class_max>
  eeb063:	mov    $0x15cc108,%r12d
  eeb069:	shl    $0x7,%rdi
  eeb06d:	imul   %rdx,%rdi
  eeb071:	jmpq   eea290 <_Z15pfs_show_statusP10handlertonP3THDPFbS2_PKcmS4_mS4_mE12ha_stat_type+0xa0>
  eeb076:	mov    $0xb8,%edi
  eeb07b:	mov    $0x15cc0d0,%r12d
  eeb081:	jmpq   eea290 <_Z15pfs_show_statusP10handlertonP3THDPFbS2_PKcmS4_mS4_mE12ha_stat_type+0xa0>
  eeb086:	mov    0xf6baec(%rip),%eax        # 1e56b78 <global_account_container+0x58>
  eeb08c:	mov    %eax,%edx
  eeb08e:	lock cmpxchg %eax,0xf6bae2(%rip)        # 1e56b78 <global_account_container+0x58>
  eeb096:	jne    eeb08c <_Z15pfs_show_statusP10handlertonP3THDPFbS2_PKcmS4_mS4_mE12ha_stat_type+0xe9c>
  eeb098:	mov    0xfaa981(%rip),%r8        # 1e95a20 <statement_class_max>
  eeb09f:	mov    $0x15cc090,%r12d
  eeb0a5:	imul   $0x5c00,%r8,%rdi
  eeb0ac:	imul   %rdx,%rdi
  eeb0b0:	add    %rdi,-0x450(%rbp)
  eeb0b7:	jmpq   eea290 <_Z15pfs_show_statusP10handlertonP3THDPFbS2_PKcmS4_mS4_mE12ha_stat_type+0xa0>
  eeb0bc:	mov    0xf6bab6(%rip),%eax        # 1e56b78 <global_account_container+0x58>
  eeb0c2:	mov    %eax,%edx
  eeb0c4:	lock cmpxchg %eax,0xf6baac(%rip)        # 1e56b78 <global_account_container+0x58>
  eeb0cc:	jne    eeb0c2 <_Z15pfs_show_statusP10handlertonP3THDPFbS2_PKcmS4_mS4_mE12ha_stat_type+0xed2>
  eeb0ce:	mov    0xfaa94b(%rip),%rdi        # 1e95a20 <statement_class_max>
  eeb0d5:	mov    $0x15cc050,%r12d
  eeb0db:	shl    $0x7,%rdi
  eeb0df:	imul   %rdx,%rdi
  eeb0e3:	jmpq   eea290 <_Z15pfs_show_statusP10handlertonP3THDPFbS2_PKcmS4_mS4_mE12ha_stat_type+0xa0>
  eeb0e8:	mov    $0xb8,%edi
  eeb0ed:	mov    $0x15cc018,%r12d
  eeb0f3:	jmpq   eea290 <_Z15pfs_show_statusP10handlertonP3THDPFbS2_PKcmS4_mS4_mE12ha_stat_type+0xa0>
  eeb0f8:	mov    0xfaa921(%rip),%r9        # 1e95a20 <statement_class_max>
  eeb0ff:	mov    $0x15cbfe0,%r12d
  eeb105:	imul   $0xb8,%r9,%rdi
  eeb10c:	add    %rdi,-0x450(%rbp)
  eeb113:	jmpq   eea290 <_Z15pfs_show_statusP10handlertonP3THDPFbS2_PKcmS4_mS4_mE12ha_stat_type+0xa0>
  eeb118:	mov    0xfaa901(%rip),%rdi        # 1e95a20 <statement_class_max>
  eeb11f:	mov    $0x15cbfa8,%r12d
  eeb125:	jmpq   eea290 <_Z15pfs_show_statusP10handlertonP3THDPFbS2_PKcmS4_mS4_mE12ha_stat_type+0xa0>
  eeb12a:	mov    $0xb8,%edi
  eeb12f:	mov    $0x15cbf70,%r12d
  eeb135:	jmpq   eea290 <_Z15pfs_show_statusP10handlertonP3THDPFbS2_PKcmS4_mS4_mE12ha_stat_type+0xa0>
  eeb13a:	mov    0xf6ac78(%rip),%eax        # 1e55db8 <global_thread_container+0x58>
  eeb140:	mov    %eax,%edx
  eeb142:	lock cmpxchg %eax,0xf6ac6e(%rip)        # 1e55db8 <global_thread_container+0x58>
  eeb14a:	jne    eeb140 <_Z15pfs_show_statusP10handlertonP3THDPFbS2_PKcmS4_mS4_mE12ha_stat_type+0xf50>
  eeb14c:	mov    0xfaa8cd(%rip),%r10        # 1e95a20 <statement_class_max>
  eeb153:	mov    $0x15cbf30,%r12d
  eeb159:	imul   $0xb800,%r10,%rdi
  eeb160:	imul   %rdx,%rdi
  eeb164:	add    %rdi,-0x450(%rbp)
  eeb16b:	jmpq   eea290 <_Z15pfs_show_statusP10handlertonP3THDPFbS2_PKcmS4_mS4_mE12ha_stat_type+0xa0>
  eeb170:	mov    0xf6ac42(%rip),%eax        # 1e55db8 <global_thread_container+0x58>
  eeb176:	mov    %eax,%edx
  eeb178:	lock cmpxchg %eax,0xf6ac38(%rip)        # 1e55db8 <global_thread_container+0x58>
  eeb180:	jne    eeb176 <_Z15pfs_show_statusP10handlertonP3THDPFbS2_PKcmS4_mS4_mE12ha_stat_type+0xf86>
  eeb182:	mov    0xfaa897(%rip),%rdi        # 1e95a20 <statement_class_max>
  eeb189:	mov    $0x15cbef8,%r12d
  eeb18f:	shl    $0x8,%rdi
  eeb193:	imul   %rdx,%rdi
  eeb197:	jmpq   eea290 <_Z15pfs_show_statusP10handlertonP3THDPFbS2_PKcmS4_mS4_mE12ha_stat_type+0xa0>
  eeb19c:	mov    $0xb8,%edi
  eeb1a1:	mov    $0x15cbec0,%r12d
  eeb1a7:	jmpq   eea290 <_Z15pfs_show_statusP10handlertonP3THDPFbS2_PKcmS4_mS4_mE12ha_stat_type+0xa0>
  eeb1ac:	mov    0xfa978d(%rip),%r11        # 1e94940 <events_statements_history_long_size>
  eeb1b3:	mov    $0x15cbe98,%r12d
  eeb1b9:	imul   $0x598,%r11,%rdi
  eeb1c0:	add    %rdi,-0x450(%rbp)
  eeb1c7:	jmpq   eea290 <_Z15pfs_show_statusP10handlertonP3THDPFbS2_PKcmS4_mS4_mE12ha_stat_type+0xa0>
  eeb1cc:	mov    0xfa976d(%rip),%rdi        # 1e94940 <events_statements_history_long_size>
  eeb1d3:	mov    $0x15cbe70,%r12d
  eeb1d9:	jmpq   eea290 <_Z15pfs_show_statusP10handlertonP3THDPFbS2_PKcmS4_mS4_mE12ha_stat_type+0xa0>
  eeb1de:	mov    $0x598,%edi
  eeb1e3:	mov    $0x15cbe48,%r12d
  eeb1e9:	jmpq   eea290 <_Z15pfs_show_statusP10handlertonP3THDPFbS2_PKcmS4_mS4_mE12ha_stat_type+0xa0>
  eeb1ee:	mov    0xf6abc4(%rip),%eax        # 1e55db8 <global_thread_container+0x58>
  eeb1f4:	mov    %eax,%edx
  eeb1f6:	lock cmpxchg %eax,0xf6abba(%rip)        # 1e55db8 <global_thread_container+0x58>
  eeb1fe:	jne    eeb1f4 <_Z15pfs_show_statusP10handlertonP3THDPFbS2_PKcmS4_mS4_mE12ha_stat_type+0x1004>
  eeb200:	mov    0xfa9e79(%rip),%r12        # 1e95080 <events_statements_history_per_thread>
  eeb207:	imul   $0x59800,%r12,%rdi
  eeb20e:	mov    $0x15cbe20,%r12d
  eeb214:	imul   %rdx,%rdi
  eeb218:	add    %rdi,-0x450(%rbp)
  eeb21f:	jmpq   eea290 <_Z15pfs_show_statusP10handlertonP3THDPFbS2_PKcmS4_mS4_mE12ha_stat_type+0xa0>
  eeb224:	mov    0xf6ab8e(%rip),%eax        # 1e55db8 <global_thread_container+0x58>
  eeb22a:	mov    %eax,%edx
  eeb22c:	lock cmpxchg %eax,0xf6ab84(%rip)        # 1e55db8 <global_thread_container+0x58>
  eeb234:	jne    eeb22a <_Z15pfs_show_statusP10handlertonP3THDPFbS2_PKcmS4_mS4_mE12ha_stat_type+0x103a>
  eeb236:	mov    0xfa9e43(%rip),%rdi        # 1e95080 <events_statements_history_per_thread>
  eeb23d:	mov    $0x15cbe00,%r12d
  eeb243:	shl    $0x8,%rdi
  eeb247:	imul   %rdx,%rdi
  eeb24b:	jmpq   eea290 <_Z15pfs_show_statusP10handlertonP3THDPFbS2_PKcmS4_mS4_mE12ha_stat_type+0xa0>
  eeb250:	mov    $0x598,%edi
  eeb255:	mov    $0x15cbde0,%r12d
  eeb25b:	jmpq   eea290 <_Z15pfs_show_statusP10handlertonP3THDPFbS2_PKcmS4_mS4_mE12ha_stat_type+0xa0>
  eeb260:	mov    0xfaa7b9(%rip),%rax        # 1e95a20 <statement_class_max>
  eeb267:	mov    $0x15cb3ee,%r12d
  eeb26d:	lea    (%rax,%rax,2),%rdi
  eeb271:	shl    $0x6,%rdi
  eeb275:	add    %rdi,-0x450(%rbp)
  eeb27c:	jmpq   eea290 <_Z15pfs_show_statusP10handlertonP3THDPFbS2_PKcmS4_mS4_mE12ha_stat_type+0xa0>
  eeb281:	mov    0xfaa798(%rip),%rdi        # 1e95a20 <statement_class_max>
  eeb288:	mov    $0x15cb3d2,%r12d
  eeb28e:	jmpq   eea290 <_Z15pfs_show_statusP10handlertonP3THDPFbS2_PKcmS4_mS4_mE12ha_stat_type+0xa0>
  eeb293:	mov    $0xc0,%edi
  eeb298:	mov    $0x15cb3b7,%r12d
  eeb29e:	jmpq   eea290 <_Z15pfs_show_statusP10handlertonP3THDPFbS2_PKcmS4_mS4_mE12ha_stat_type+0xa0>
  eeb2a3:	mov    0xf6b3ef(%rip),%eax        # 1e56698 <global_host_container+0x58>
  eeb2a9:	mov    %eax,%edx
  eeb2ab:	lock cmpxchg %eax,0xf6b3e5(%rip)        # 1e56698 <global_host_container+0x58>
  eeb2b3:	jne    eeb2a9 <_Z15pfs_show_statusP10handlertonP3THDPFbS2_PKcmS4_mS4_mE12ha_stat_type+0x10b9>
  eeb2b5:	mov    0xfaa784(%rip),%rdi        # 1e95a40 <stage_class_max>
  eeb2bc:	mov    $0x15cbda8,%r12d
  eeb2c2:	shl    $0xc,%rdi
  eeb2c6:	imul   %rdx,%rdi
  eeb2ca:	add    %rdi,-0x450(%rbp)
  eeb2d1:	jmpq   eea290 <_Z15pfs_show_statusP10handlertonP3THDPFbS2_PKcmS4_mS4_mE12ha_stat_type+0xa0>
  eeb2d6:	mov    0xf6b3bc(%rip),%eax        # 1e56698 <global_host_container+0x58>
  eeb2dc:	mov    %eax,%edx
  eeb2de:	lock cmpxchg %eax,0xf6b3b2(%rip)        # 1e56698 <global_host_container+0x58>
  eeb2e6:	jne    eeb2dc <_Z15pfs_show_statusP10handlertonP3THDPFbS2_PKcmS4_mS4_mE12ha_stat_type+0x10ec>
  eeb2e8:	mov    0xfaa751(%rip),%rdi        # 1e95a40 <stage_class_max>
  eeb2ef:	mov    $0x15cbd70,%r12d
  eeb2f5:	shl    $0x7,%rdi
  eeb2f9:	imul   %rdx,%rdi
  eeb2fd:	jmpq   eea290 <_Z15pfs_show_statusP10handlertonP3THDPFbS2_PKcmS4_mS4_mE12ha_stat_type+0xa0>
  eeb302:	mov    $0x20,%edi
  eeb307:	mov    $0x15cbd38,%r12d
  eeb30d:	jmpq   eea290 <_Z15pfs_show_statusP10handlertonP3THDPFbS2_PKcmS4_mS4_mE12ha_stat_type+0xa0>
  eeb312:	mov    0xf6a5c0(%rip),%eax        # 1e558d8 <global_user_container+0x58>
  eeb318:	mov    %eax,%edx
  eeb31a:	lock cmpxchg %eax,0xf6a5b6(%rip)        # 1e558d8 <global_user_container+0x58>
  eeb322:	jne    eeb318 <_Z15pfs_show_statusP10handlertonP3THDPFbS2_PKcmS4_mS4_mE12ha_stat_type+0x1128>
  eeb324:	mov    0xfaa715(%rip),%rdi        # 1e95a40 <stage_class_max>
  eeb32b:	mov    $0x15cbd00,%r12d
  eeb331:	shl    $0xc,%rdi
  eeb335:	imul   %rdx,%rdi
  eeb339:	add    %rdi,-0x450(%rbp)
  eeb340:	jmpq   eea290 <_Z15pfs_show_statusP10handlertonP3THDPFbS2_PKcmS4_mS4_mE12ha_stat_type+0xa0>
  eeb345:	mov    0xf6a58d(%rip),%eax        # 1e558d8 <global_user_container+0x58>
  eeb34b:	mov    %eax,%edx
  eeb34d:	lock cmpxchg %eax,0xf6a583(%rip)        # 1e558d8 <global_user_container+0x58>
  eeb355:	jne    eeb34b <_Z15pfs_show_statusP10handlertonP3THDPFbS2_PKcmS4_mS4_mE12ha_stat_type+0x115b>
  eeb357:	mov    0xfaa6e2(%rip),%rdi        # 1e95a40 <stage_class_max>
  eeb35e:	mov    $0x15cbcc8,%r12d
  eeb364:	shl    $0x7,%rdi
  eeb368:	imul   %rdx,%rdi
  eeb36c:	jmpq   eea290 <_Z15pfs_show_statusP10handlertonP3THDPFbS2_PKcmS4_mS4_mE12ha_stat_type+0xa0>
  eeb371:	mov    $0x20,%edi
  eeb376:	mov    $0x15cbc90,%r12d
  eeb37c:	jmpq   eea290 <_Z15pfs_show_statusP10handlertonP3THDPFbS2_PKcmS4_mS4_mE12ha_stat_type+0xa0>
  eeb381:	mov    0xf6b7f1(%rip),%eax        # 1e56b78 <global_account_container+0x58>
  eeb387:	mov    %eax,%edx
  eeb389:	lock cmpxchg %eax,0xf6b7e7(%rip)        # 1e56b78 <global_account_container+0x58>
  eeb391:	jne    eeb387 <_Z15pfs_show_statusP10handlertonP3THDPFbS2_PKcmS4_mS4_mE12ha_stat_type+0x1197>
  eeb393:	mov    0xfaa6a6(%rip),%rdi        # 1e95a40 <stage_class_max>
  eeb39a:	mov    $0x15cbc58,%r12d
  eeb3a0:	shl    $0xc,%rdi
  eeb3a4:	imul   %rdx,%rdi
  eeb3a8:	add    %rdi,-0x450(%rbp)
  eeb3af:	jmpq   eea290 <_Z15pfs_show_statusP10handlertonP3THDPFbS2_PKcmS4_mS4_mE12ha_stat_type+0xa0>
  eeb3b4:	mov    0xf6b7be(%rip),%eax        # 1e56b78 <global_account_container+0x58>
  eeb3ba:	mov    %eax,%edx
  eeb3bc:	lock cmpxchg %eax,0xf6b7b4(%rip)        # 1e56b78 <global_account_container+0x58>
  eeb3c4:	jne    eeb3ba <_Z15pfs_show_statusP10handlertonP3THDPFbS2_PKcmS4_mS4_mE12ha_stat_type+0x11ca>
  eeb3c6:	mov    0xfaa673(%rip),%rdi        # 1e95a40 <stage_class_max>
  eeb3cd:	mov    $0x15cbc20,%r12d
  eeb3d3:	shl    $0x7,%rdi
  eeb3d7:	imul   %rdx,%rdi
  eeb3db:	jmpq   eea290 <_Z15pfs_show_statusP10handlertonP3THDPFbS2_PKcmS4_mS4_mE12ha_stat_type+0xa0>
  eeb3e0:	mov    $0x20,%edi
  eeb3e5:	mov    $0x15cbbe8,%r12d
  eeb3eb:	jmpq   eea290 <_Z15pfs_show_statusP10handlertonP3THDPFbS2_PKcmS4_mS4_mE12ha_stat_type+0xa0>
  eeb3f0:	mov    0xfaa649(%rip),%rdi        # 1e95a40 <stage_class_max>
  eeb3f7:	mov    $0x15cbbb0,%r12d
  eeb3fd:	shl    $0x5,%rdi
  eeb401:	add    %rdi,-0x450(%rbp)
  eeb408:	jmpq   eea290 <_Z15pfs_show_statusP10handlertonP3THDPFbS2_PKcmS4_mS4_mE12ha_stat_type+0xa0>
  eeb40d:	mov    0xfaa62c(%rip),%rdi        # 1e95a40 <stage_class_max>
  eeb414:	mov    $0x15cbb78,%r12d
  eeb41a:	jmpq   eea290 <_Z15pfs_show_statusP10handlertonP3THDPFbS2_PKcmS4_mS4_mE12ha_stat_type+0xa0>
  eeb41f:	mov    $0x20,%edi
  eeb424:	mov    $0x15cbb48,%r12d
  eeb42a:	jmpq   eea290 <_Z15pfs_show_statusP10handlertonP3THDPFbS2_PKcmS4_mS4_mE12ha_stat_type+0xa0>
  eeb42f:	mov    0xf6a983(%rip),%eax        # 1e55db8 <global_thread_container+0x58>
  eeb435:	mov    %eax,%edx
  eeb437:	lock cmpxchg %eax,0xf6a979(%rip)        # 1e55db8 <global_thread_container+0x58>
  eeb43f:	jne    eeb435 <_Z15pfs_show_statusP10handlertonP3THDPFbS2_PKcmS4_mS4_mE12ha_stat_type+0x1245>
  eeb441:	mov    0xfaa5f8(%rip),%rdi        # 1e95a40 <stage_class_max>
  eeb448:	mov    $0x15cbb10,%r12d
  eeb44e:	shl    $0xd,%rdi
  eeb452:	imul   %rdx,%rdi
  eeb456:	add    %rdi,-0x450(%rbp)
  eeb45d:	jmpq   eea290 <_Z15pfs_show_statusP10handlertonP3THDPFbS2_PKcmS4_mS4_mE12ha_stat_type+0xa0>
  eeb462:	mov    0xf6a950(%rip),%eax        # 1e55db8 <global_thread_container+0x58>
  eeb468:	mov    %eax,%edx
  eeb46a:	lock cmpxchg %eax,0xf6a946(%rip)        # 1e55db8 <global_thread_container+0x58>
  eeb472:	jne    eeb468 <_Z15pfs_show_statusP10handlertonP3THDPFbS2_PKcmS4_mS4_mE12ha_stat_type+0x1278>
  eeb474:	mov    0xfaa5c5(%rip),%rdi        # 1e95a40 <stage_class_max>
  eeb47b:	mov    $0x15cbad8,%r12d
  eeb481:	shl    $0x8,%rdi
  eeb485:	imul   %rdx,%rdi
  eeb489:	jmpq   eea290 <_Z15pfs_show_statusP10handlertonP3THDPFbS2_PKcmS4_mS4_mE12ha_stat_type+0xa0>
  eeb48e:	mov    $0x20,%edi
  eeb493:	mov    $0x15cbaa0,%r12d
  eeb499:	jmpq   eea290 <_Z15pfs_show_statusP10handlertonP3THDPFbS2_PKcmS4_mS4_mE12ha_stat_type+0xa0>
  eeb49e:	mov    0xfa92db(%rip),%rax        # 1e94780 <events_stages_history_long_size>
  eeb4a5:	mov    $0x15cba78,%r12d
  eeb4ab:	lea    (%rax,%rax,2),%rdx
  eeb4af:	lea    (%rax,%rdx,4),%rdi
  eeb4b3:	shl    $0x3,%rdi
  eeb4b7:	add    %rdi,-0x450(%rbp)
  eeb4be:	jmpq   eea290 <_Z15pfs_show_statusP10handlertonP3THDPFbS2_PKcmS4_mS4_mE12ha_stat_type+0xa0>
  eeb4c3:	mov    0xfa92b6(%rip),%rdi        # 1e94780 <events_stages_history_long_size>
  eeb4ca:	mov    $0x15cba50,%r12d
  eeb4d0:	jmpq   eea290 <_Z15pfs_show_statusP10handlertonP3THDPFbS2_PKcmS4_mS4_mE12ha_stat_type+0xa0>
  eeb4d5:	mov    $0x68,%edi
  eeb4da:	mov    $0x15cba30,%r12d
  eeb4e0:	jmpq   eea290 <_Z15pfs_show_statusP10handlertonP3THDPFbS2_PKcmS4_mS4_mE12ha_stat_type+0xa0>
  eeb4e5:	mov    0xf6a8cd(%rip),%eax        # 1e55db8 <global_thread_container+0x58>
  eeb4eb:	mov    %eax,%edx
  eeb4ed:	lock cmpxchg %eax,0xf6a8c3(%rip)        # 1e55db8 <global_thread_container+0x58>
  eeb4f5:	jne    eeb4eb <_Z15pfs_show_statusP10handlertonP3THDPFbS2_PKcmS4_mS4_mE12ha_stat_type+0x12fb>
  eeb4f7:	mov    0xfa9b92(%rip),%rax        # 1e95090 <events_stages_history_per_thread>
  eeb4fe:	mov    $0x15cb39a,%r12d
  eeb504:	lea    (%rax,%rax,2),%rcx
  eeb508:	lea    (%rax,%rcx,4),%rdi
  eeb50c:	shl    $0xb,%rdi
  eeb510:	imul   %rdx,%rdi
  eeb514:	add    %rdi,-0x450(%rbp)
  eeb51b:	jmpq   eea290 <_Z15pfs_show_statusP10handlertonP3THDPFbS2_PKcmS4_mS4_mE12ha_stat_type+0xa0>
  eeb520:	mov    0xf6a892(%rip),%eax        # 1e55db8 <global_thread_container+0x58>
  eeb526:	mov    %eax,%edx
  eeb528:	lock cmpxchg %eax,0xf6a888(%rip)        # 1e55db8 <global_thread_container+0x58>
  eeb530:	jne    eeb526 <_Z15pfs_show_statusP10handlertonP3THDPFbS2_PKcmS4_mS4_mE12ha_stat_type+0x1336>
  eeb532:	mov    0xfa9b57(%rip),%rdi        # 1e95090 <events_stages_history_per_thread>
  eeb539:	mov    $0x15cb37e,%r12d
  eeb53f:	shl    $0x8,%rdi
  eeb543:	imul   %rdx,%rdi
  eeb547:	jmpq   eea290 <_Z15pfs_show_statusP10handlertonP3THDPFbS2_PKcmS4_mS4_mE12ha_stat_type+0xa0>
  eeb54c:	mov    $0x68,%edi
  eeb551:	mov    $0x15cb363,%r12d
  eeb557:	jmpq   eea290 <_Z15pfs_show_statusP10handlertonP3THDPFbS2_PKcmS4_mS4_mE12ha_stat_type+0xa0>
  eeb55c:	mov    0xfaa4dd(%rip),%rdi        # 1e95a40 <stage_class_max>
  eeb563:	mov    $0x15cb34a,%r12d
  eeb569:	shl    $0x8,%rdi
  eeb56d:	add    %rdi,-0x450(%rbp)
  eeb574:	jmpq   eea290 <_Z15pfs_show_statusP10handlertonP3THDPFbS2_PKcmS4_mS4_mE12ha_stat_type+0xa0>
  eeb579:	mov    0xfaa4c0(%rip),%rdi        # 1e95a40 <stage_class_max>
  eeb580:	mov    $0x15cb332,%r12d
  eeb586:	jmpq   eea290 <_Z15pfs_show_statusP10handlertonP3THDPFbS2_PKcmS4_mS4_mE12ha_stat_type+0xa0>
  eeb58b:	mov    $0x100,%edi
  eeb590:	mov    $0x15cb31b,%r12d
  eeb596:	jmpq   eea290 <_Z15pfs_show_statusP10handlertonP3THDPFbS2_PKcmS4_mS4_mE12ha_stat_type+0xa0>
  eeb59b:	mov    0xf6b0f7(%rip),%eax        # 1e56698 <global_host_container+0x58>
  eeb5a1:	mov    %eax,%edx
  eeb5a3:	lock cmpxchg %eax,0xf6b0ed(%rip)        # 1e56698 <global_host_container+0x58>
  eeb5ab:	jne    eeb5a1 <_Z15pfs_show_statusP10handlertonP3THDPFbS2_PKcmS4_mS4_mE12ha_stat_type+0x13b1>
  eeb5ad:	mov    %edx,%eax
  eeb5af:	mov    $0x15cb309,%r12d
  eeb5b5:	lea    (%rax,%rax,8),%rdi
  eeb5b9:	shl    $0xd,%rdi
  eeb5bd:	add    %rdi,-0x450(%rbp)
  eeb5c4:	jmpq   eea290 <_Z15pfs_show_statusP10handlertonP3THDPFbS2_PKcmS4_mS4_mE12ha_stat_type+0xa0>
  eeb5c9:	mov    0xf6b0c9(%rip),%eax        # 1e56698 <global_host_container+0x58>
  eeb5cf:	mov    %eax,%edi
  eeb5d1:	lock cmpxchg %eax,0xf6b0bf(%rip)        # 1e56698 <global_host_container+0x58>
  eeb5d9:	jne    eeb5cf <_Z15pfs_show_statusP10handlertonP3THDPFbS2_PKcmS4_mS4_mE12ha_stat_type+0x13df>
  eeb5db:	shl    $0x7,%rdi
  eeb5df:	mov    $0x15cb2f8,%r12d
  eeb5e5:	jmpq   eea290 <_Z15pfs_show_statusP10handlertonP3THDPFbS2_PKcmS4_mS4_mE12ha_stat_type+0xa0>
  eeb5ea:	mov    $0x240,%edi
  eeb5ef:	mov    $0x15cb2e8,%r12d
  eeb5f5:	jmpq   eea290 <_Z15pfs_show_statusP10handlertonP3THDPFbS2_PKcmS4_mS4_mE12ha_stat_type+0xa0>
  eeb5fa:	mov    0xf6a2d8(%rip),%eax        # 1e558d8 <global_user_container+0x58>
  eeb600:	mov    %eax,%edx
  eeb602:	lock cmpxchg %eax,0xf6a2ce(%rip)        # 1e558d8 <global_user_container+0x58>
  eeb60a:	jne    eeb600 <_Z15pfs_show_statusP10handlertonP3THDPFbS2_PKcmS4_mS4_mE12ha_stat_type+0x1410>
  eeb60c:	mov    %edx,%eax
  eeb60e:	mov    $0x15cb2d6,%r12d
  eeb614:	lea    (%rax,%rax,4),%rdi
  eeb618:	shl    $0xe,%rdi
  eeb61c:	add    %rdi,-0x450(%rbp)
  eeb623:	jmpq   eea290 <_Z15pfs_show_statusP10handlertonP3THDPFbS2_PKcmS4_mS4_mE12ha_stat_type+0xa0>
  eeb628:	mov    0xf6a2aa(%rip),%eax        # 1e558d8 <global_user_container+0x58>
  eeb62e:	mov    %eax,%edi
  eeb630:	lock cmpxchg %eax,0xf6a2a0(%rip)        # 1e558d8 <global_user_container+0x58>
  eeb638:	jne    eeb62e <_Z15pfs_show_statusP10handlertonP3THDPFbS2_PKcmS4_mS4_mE12ha_stat_type+0x143e>
  eeb63a:	shl    $0x7,%rdi
  eeb63e:	mov    $0x15cb2c5,%r12d
  eeb644:	jmpq   eea290 <_Z15pfs_show_statusP10handlertonP3THDPFbS2_PKcmS4_mS4_mE12ha_stat_type+0xa0>
  eeb649:	mov    $0x280,%edi
  eeb64e:	mov    $0x15cb2b5,%r12d
  eeb654:	jmpq   eea290 <_Z15pfs_show_statusP10handlertonP3THDPFbS2_PKcmS4_mS4_mE12ha_stat_type+0xa0>
  eeb659:	mov    0xf6b039(%rip),%eax        # 1e56698 <global_host_container+0x58>
  eeb65f:	mov    %eax,%edx
  eeb661:	lock cmpxchg %eax,0xf6b02f(%rip)        # 1e56698 <global_host_container+0x58>
  eeb669:	jne    eeb65f <_Z15pfs_show_statusP10handlertonP3THDPFbS2_PKcmS4_mS4_mE12ha_stat_type+0x146f>
  eeb66b:	mov    0xfa9b1f(%rip),%edi        # 1e95190 <wait_class_max>
  eeb671:	mov    $0x15cb9f8,%r12d
  eeb677:	shl    $0xc,%rdi
  eeb67b:	imul   %rdx,%rdi
  eeb67f:	add    %rdi,-0x450(%rbp)
  eeb686:	jmpq   eea290 <_Z15pfs_show_statusP10handlertonP3THDPFbS2_PKcmS4_mS4_mE12ha_stat_type+0xa0>
  eeb68b:	mov    0xf6b007(%rip),%eax        # 1e56698 <global_host_container+0x58>
  eeb691:	mov    %eax,%edx
  eeb693:	lock cmpxchg %eax,0xf6affd(%rip)        # 1e56698 <global_host_container+0x58>
  eeb69b:	jne    eeb691 <_Z15pfs_show_statusP10handlertonP3THDPFbS2_PKcmS4_mS4_mE12ha_stat_type+0x14a1>
  eeb69d:	mov    0xfa9aed(%rip),%edi        # 1e95190 <wait_class_max>
  eeb6a3:	mov    $0x15cb9c0,%r12d
  eeb6a9:	shl    $0x7,%rdi
  eeb6ad:	imul   %rdx,%rdi
  eeb6b1:	jmpq   eea290 <_Z15pfs_show_statusP10handlertonP3THDPFbS2_PKcmS4_mS4_mE12ha_stat_type+0xa0>
  eeb6b6:	mov    $0x20,%edi
  eeb6bb:	mov    $0x15cb990,%r12d
  eeb6c1:	jmpq   eea290 <_Z15pfs_show_statusP10handlertonP3THDPFbS2_PKcmS4_mS4_mE12ha_stat_type+0xa0>
  eeb6c6:	mov    0xf6a20c(%rip),%eax        # 1e558d8 <global_user_container+0x58>
  eeb6cc:	mov    %eax,%edx
  eeb6ce:	lock cmpxchg %eax,0xf6a202(%rip)        # 1e558d8 <global_user_container+0x58>
  eeb6d6:	jne    eeb6cc <_Z15pfs_show_statusP10handlertonP3THDPFbS2_PKcmS4_mS4_mE12ha_stat_type+0x14dc>
  eeb6d8:	mov    0xfa9ab2(%rip),%edi        # 1e95190 <wait_class_max>
  eeb6de:	mov    $0x15cb958,%r12d
  eeb6e4:	shl    $0xc,%rdi
  eeb6e8:	imul   %rdx,%rdi
  eeb6ec:	add    %rdi,-0x450(%rbp)
  eeb6f3:	jmpq   eea290 <_Z15pfs_show_statusP10handlertonP3THDPFbS2_PKcmS4_mS4_mE12ha_stat_type+0xa0>
  eeb6f8:	mov    0xf6a1da(%rip),%eax        # 1e558d8 <global_user_container+0x58>
  eeb6fe:	mov    %eax,%edx
  eeb700:	lock cmpxchg %eax,0xf6a1d0(%rip)        # 1e558d8 <global_user_container+0x58>
  eeb708:	jne    eeb6fe <_Z15pfs_show_statusP10handlertonP3THDPFbS2_PKcmS4_mS4_mE12ha_stat_type+0x150e>
  eeb70a:	mov    0xfa9a80(%rip),%edi        # 1e95190 <wait_class_max>
  eeb710:	mov    $0x15cb920,%r12d
  eeb716:	shl    $0x7,%rdi
  eeb71a:	imul   %rdx,%rdi
  eeb71e:	jmpq   eea290 <_Z15pfs_show_statusP10handlertonP3THDPFbS2_PKcmS4_mS4_mE12ha_stat_type+0xa0>
  eeb723:	mov    $0x20,%edi
  eeb728:	mov    $0x15cb8f0,%r12d
  eeb72e:	jmpq   eea290 <_Z15pfs_show_statusP10handlertonP3THDPFbS2_PKcmS4_mS4_mE12ha_stat_type+0xa0>
  eeb733:	mov    0xf6b43f(%rip),%eax        # 1e56b78 <global_account_container+0x58>
  eeb739:	mov    %eax,%edx
  eeb73b:	lock cmpxchg %eax,0xf6b435(%rip)        # 1e56b78 <global_account_container+0x58>
  eeb743:	jne    eeb739 <_Z15pfs_show_statusP10handlertonP3THDPFbS2_PKcmS4_mS4_mE12ha_stat_type+0x1549>
  eeb745:	mov    0xfa9a45(%rip),%edi        # 1e95190 <wait_class_max>
  eeb74b:	mov    $0x15cb8b8,%r12d
  eeb751:	shl    $0xc,%rdi
  eeb755:	imul   %rdx,%rdi
  eeb759:	add    %rdi,-0x450(%rbp)
  eeb760:	jmpq   eea290 <_Z15pfs_show_statusP10handlertonP3THDPFbS2_PKcmS4_mS4_mE12ha_stat_type+0xa0>
  eeb765:	mov    0xf6b40d(%rip),%eax        # 1e56b78 <global_account_container+0x58>
  eeb76b:	mov    %eax,%edx
  eeb76d:	lock cmpxchg %eax,0xf6b403(%rip)        # 1e56b78 <global_account_container+0x58>
  eeb775:	jne    eeb76b <_Z15pfs_show_statusP10handlertonP3THDPFbS2_PKcmS4_mS4_mE12ha_stat_type+0x157b>
  eeb777:	mov    0xfa9a13(%rip),%edi        # 1e95190 <wait_class_max>
  eeb77d:	mov    $0x15cb880,%r12d
  eeb783:	shl    $0x7,%rdi
  eeb787:	imul   %rdx,%rdi
  eeb78b:	jmpq   eea290 <_Z15pfs_show_statusP10handlertonP3THDPFbS2_PKcmS4_mS4_mE12ha_stat_type+0xa0>
  eeb790:	mov    $0x20,%edi
  eeb795:	mov    $0x15cb848,%r12d
  eeb79b:	jmpq   eea290 <_Z15pfs_show_statusP10handlertonP3THDPFbS2_PKcmS4_mS4_mE12ha_stat_type+0xa0>
  eeb7a0:	mov    0xf6b3d2(%rip),%eax        # 1e56b78 <global_account_container+0x58>
  eeb7a6:	mov    %eax,%edx
  eeb7a8:	lock cmpxchg %eax,0xf6b3c8(%rip)        # 1e56b78 <global_account_container+0x58>
  eeb7b0:	jne    eeb7a6 <_Z15pfs_show_statusP10handlertonP3THDPFbS2_PKcmS4_mS4_mE12ha_stat_type+0x15b6>
  eeb7b2:	mov    %edx,%eax
  eeb7b4:	mov    $0x15cb2a0,%r12d
  eeb7ba:	lea    (%rax,%rax,4),%rdx
  eeb7be:	lea    (%rax,%rdx,2),%rdi
  eeb7c2:	shl    $0xd,%rdi
  eeb7c6:	add    %rdi,-0x450(%rbp)
  eeb7cd:	jmpq   eea290 <_Z15pfs_show_statusP10handlertonP3THDPFbS2_PKcmS4_mS4_mE12ha_stat_type+0xa0>
  eeb7d2:	mov    0xf6b3a0(%rip),%eax        # 1e56b78 <global_account_container+0x58>
  eeb7d8:	mov    %eax,%edi
  eeb7da:	lock cmpxchg %eax,0xf6b396(%rip)        # 1e56b78 <global_account_container+0x58>
  eeb7e2:	jne    eeb7d8 <_Z15pfs_show_statusP10handlertonP3THDPFbS2_PKcmS4_mS4_mE12ha_stat_type+0x15e8>
  eeb7e4:	shl    $0x7,%rdi
  eeb7e8:	mov    $0x15cb28c,%r12d
  eeb7ee:	jmpq   eea290 <_Z15pfs_show_statusP10handlertonP3THDPFbS2_PKcmS4_mS4_mE12ha_stat_type+0xa0>
  eeb7f3:	mov    $0x2c0,%edi
  eeb7f8:	mov    $0x15cb279,%r12d
  eeb7fe:	jmpq   eea290 <_Z15pfs_show_statusP10handlertonP3THDPFbS2_PKcmS4_mS4_mE12ha_stat_type+0xa0>
  eeb803:	mov    0xf91d8f(%rip),%eax        # 1e7d598 <global_setup_object_container+0x58>
  eeb809:	mov    %eax,%edi
  eeb80b:	lock cmpxchg %eax,0xf91d85(%rip)        # 1e7d598 <global_setup_object_container+0x58>
  eeb813:	jne    eeb809 <_Z15pfs_show_statusP10handlertonP3THDPFbS2_PKcmS4_mS4_mE12ha_stat_type+0x1619>
  eeb815:	mov    %rdi,%rax
  eeb818:	shl    $0x10,%rdi
  eeb81c:	mov    $0x15cb264,%r12d
  eeb822:	shl    $0xd,%rax
  eeb826:	sub    %rax,%rdi
  eeb829:	add    %rdi,-0x450(%rbp)
  eeb830:	jmpq   eea290 <_Z15pfs_show_statusP10handlertonP3THDPFbS2_PKcmS4_mS4_mE12ha_stat_type+0xa0>
  eeb835:	mov    0xf91d5d(%rip),%eax        # 1e7d598 <global_setup_object_container+0x58>
  eeb83b:	mov    %eax,%edi
  eeb83d:	lock cmpxchg %eax,0xf91d53(%rip)        # 1e7d598 <global_setup_object_container+0x58>
  eeb845:	jne    eeb83b <_Z15pfs_show_statusP10handlertonP3THDPFbS2_PKcmS4_mS4_mE12ha_stat_type+0x164b>
  eeb847:	shl    $0x7,%rdi
  eeb84b:	mov    $0x15cb250,%r12d
  eeb851:	jmpq   eea290 <_Z15pfs_show_statusP10handlertonP3THDPFbS2_PKcmS4_mS4_mE12ha_stat_type+0xa0>
  eeb856:	mov    $0x1c0,%edi
  eeb85b:	mov    $0x15cb23d,%r12d
  eeb861:	jmpq   eea290 <_Z15pfs_show_statusP10handlertonP3THDPFbS2_PKcmS4_mS4_mE12ha_stat_type+0xa0>
  eeb866:	mov    0xf93e0c(%rip),%eax        # 1e7f678 <global_setup_actor_container+0x58>
  eeb86c:	mov    %eax,%edx
  eeb86e:	lock cmpxchg %eax,0xf93e02(%rip)        # 1e7f678 <global_setup_actor_container+0x58>
  eeb876:	jne    eeb86c <_Z15pfs_show_statusP10handlertonP3THDPFbS2_PKcmS4_mS4_mE12ha_stat_type+0x167c>
  eeb878:	mov    %edx,%eax
  eeb87a:	mov    $0x15cb229,%r12d
  eeb880:	lea    (%rax,%rax,4),%rdi
  eeb884:	shl    $0xd,%rdi
  eeb888:	add    %rdi,-0x450(%rbp)
  eeb88f:	jmpq   eea290 <_Z15pfs_show_statusP10handlertonP3THDPFbS2_PKcmS4_mS4_mE12ha_stat_type+0xa0>
  eeb894:	mov    0xf93dde(%rip),%eax        # 1e7f678 <global_setup_actor_container+0x58>
  eeb89a:	mov    %eax,%edi
  eeb89c:	lock cmpxchg %eax,0xf93dd4(%rip)        # 1e7f678 <global_setup_actor_container+0x58>
  eeb8a4:	jne    eeb89a <_Z15pfs_show_statusP10handlertonP3THDPFbS2_PKcmS4_mS4_mE12ha_stat_type+0x16aa>
  eeb8a6:	shl    $0x7,%rdi
  eeb8aa:	mov    $0x15cb216,%r12d
  eeb8b0:	jmpq   eea290 <_Z15pfs_show_statusP10handlertonP3THDPFbS2_PKcmS4_mS4_mE12ha_stat_type+0xa0>
  eeb8b5:	mov    $0x140,%edi
  eeb8ba:	mov    $0x15cb204,%r12d
  eeb8c0:	jmpq   eea290 <_Z15pfs_show_statusP10handlertonP3THDPFbS2_PKcmS4_mS4_mE12ha_stat_type+0xa0>
  eeb8c5:	mov    0xf8fbed(%rip),%eax        # 1e7b4b8 <global_table_container+0x58>
  eeb8cb:	mov    %eax,%edx
  eeb8cd:	lock cmpxchg %eax,0xf8fbe3(%rip)        # 1e7b4b8 <global_table_container+0x58>
  eeb8d5:	jne    eeb8cb <_Z15pfs_show_statusP10handlertonP3THDPFbS2_PKcmS4_mS4_mE12ha_stat_type+0x16db>
  eeb8d7:	imul   $0x910000,%rdx,%rdi
  eeb8de:	mov    $0x15cb1f1,%r12d
  eeb8e4:	add    %rdi,-0x450(%rbp)
  eeb8eb:	jmpq   eea290 <_Z15pfs_show_statusP10handlertonP3THDPFbS2_PKcmS4_mS4_mE12ha_stat_type+0xa0>
  eeb8f0:	mov    0xf8fbc2(%rip),%eax        # 1e7b4b8 <global_table_container+0x58>
  eeb8f6:	mov    %eax,%edi
  eeb8f8:	lock cmpxchg %eax,0xf8fbb8(%rip)        # 1e7b4b8 <global_table_container+0x58>
  eeb900:	jne    eeb8f6 <_Z15pfs_show_statusP10handlertonP3THDPFbS2_PKcmS4_mS4_mE12ha_stat_type+0x1706>
  eeb902:	shl    $0xa,%rdi
  eeb906:	mov    $0x15cb1df,%r12d
  eeb90c:	jmpq   eea290 <_Z15pfs_show_statusP10handlertonP3THDPFbS2_PKcmS4_mS4_mE12ha_stat_type+0xa0>
  eeb911:	mov    $0x2440,%edi
  eeb916:	mov    $0x15cb1ce,%r12d
  eeb91c:	jmpq   eea290 <_Z15pfs_show_statusP10handlertonP3THDPFbS2_PKcmS4_mS4_mE12ha_stat_type+0xa0>
  eeb921:	mov    0xf87ab1(%rip),%eax        # 1e733d8 <global_table_share_container+0x58>
  eeb927:	mov    %eax,%edi
  eeb929:	lock cmpxchg %eax,0xf87aa7(%rip)        # 1e733d8 <global_table_share_container+0x58>
  eeb931:	jne    eeb927 <_Z15pfs_show_statusP10handlertonP3THDPFbS2_PKcmS4_mS4_mE12ha_stat_type+0x1737>
  eeb933:	shl    $0x16,%rdi
  eeb937:	mov    $0x15cb1b5,%r12d
  eeb93d:	add    %rdi,-0x450(%rbp)
  eeb944:	jmpq   eea290 <_Z15pfs_show_statusP10handlertonP3THDPFbS2_PKcmS4_mS4_mE12ha_stat_type+0xa0>
  eeb949:	mov    0xf87a89(%rip),%eax        # 1e733d8 <global_table_share_container+0x58>
  eeb94f:	mov    %eax,%edi
  eeb951:	lock cmpxchg %eax,0xf87a7f(%rip)        # 1e733d8 <global_table_share_container+0x58>
  eeb959:	jne    eeb94f <_Z15pfs_show_statusP10handlertonP3THDPFbS2_PKcmS4_mS4_mE12ha_stat_type+0x175f>
  eeb95b:	shl    $0xc,%rdi
  eeb95f:	mov    $0x15cb19d,%r12d
  eeb965:	jmpq   eea290 <_Z15pfs_show_statusP10handlertonP3THDPFbS2_PKcmS4_mS4_mE12ha_stat_type+0xa0>
  eeb96a:	mov    $0x400,%edi
  eeb96f:	mov    $0x15cb186,%r12d
  eeb975:	jmpq   eea290 <_Z15pfs_show_statusP10handlertonP3THDPFbS2_PKcmS4_mS4_mE12ha_stat_type+0xa0>
  eeb97a:	mov    0xf6a438(%rip),%eax        # 1e55db8 <global_thread_container+0x58>
  eeb980:	mov    %eax,%edx
  eeb982:	lock cmpxchg %eax,0xf6a42e(%rip)        # 1e55db8 <global_thread_container+0x58>
  eeb98a:	jne    eeb980 <_Z15pfs_show_statusP10handlertonP3THDPFbS2_PKcmS4_mS4_mE12ha_stat_type+0x1790>
  eeb98c:	mov    0xfa97fe(%rip),%edi        # 1e95190 <wait_class_max>
  eeb992:	mov    $0x15cb810,%r12d
  eeb998:	shl    $0xd,%rdi
  eeb99c:	imul   %rdx,%rdi
  eeb9a0:	add    %rdi,-0x450(%rbp)
  eeb9a7:	jmpq   eea290 <_Z15pfs_show_statusP10handlertonP3THDPFbS2_PKcmS4_mS4_mE12ha_stat_type+0xa0>
  eeb9ac:	mov    0xf6a406(%rip),%eax        # 1e55db8 <global_thread_container+0x58>
  eeb9b2:	mov    %eax,%edx
  eeb9b4:	lock cmpxchg %eax,0xf6a3fc(%rip)        # 1e55db8 <global_thread_container+0x58>
  eeb9bc:	jne    eeb9b2 <_Z15pfs_show_statusP10handlertonP3THDPFbS2_PKcmS4_mS4_mE12ha_stat_type+0x17c2>
  eeb9be:	mov    0xfa97cc(%rip),%edi        # 1e95190 <wait_class_max>
  eeb9c4:	mov    $0x15cb7d8,%r12d
  eeb9ca:	shl    $0x8,%rdi
  eeb9ce:	imul   %rdx,%rdi
  eeb9d2:	jmpq   eea290 <_Z15pfs_show_statusP10handlertonP3THDPFbS2_PKcmS4_mS4_mE12ha_stat_type+0xa0>
  eeb9d7:	mov    $0x20,%edi
  eeb9dc:	mov    $0x15cb7a0,%r12d
  eeb9e2:	jmpq   eea290 <_Z15pfs_show_statusP10handlertonP3THDPFbS2_PKcmS4_mS4_mE12ha_stat_type+0xa0>
  eeb9e7:	mov    0xfa96e2(%rip),%rax        # 1e950d0 <file_handle_max>
  eeb9ee:	mov    $0x15cb16d,%r12d
  eeb9f4:	lea    0x0(,%rax,8),%rdi
  eeb9fc:	add    %rdi,-0x450(%rbp)
  eeba03:	jmpq   eea290 <_Z15pfs_show_statusP10handlertonP3THDPFbS2_PKcmS4_mS4_mE12ha_stat_type+0xa0>
  eeba08:	mov    0xfa96c1(%rip),%rdi        # 1e950d0 <file_handle_max>
  eeba0f:	mov    $0x15cb155,%r12d
  eeba15:	jmpq   eea290 <_Z15pfs_show_statusP10handlertonP3THDPFbS2_PKcmS4_mS4_mE12ha_stat_type+0xa0>
  eeba1a:	mov    $0x8,%edi
  eeba1f:	mov    $0x15cb13e,%r12d
  eeba25:	jmpq   eea290 <_Z15pfs_show_statusP10handlertonP3THDPFbS2_PKcmS4_mS4_mE12ha_stat_type+0xa0>
  eeba2a:	mov    0xf986e8(%rip),%eax        # 1e84118 <global_file_container+0x58>
  eeba30:	mov    %eax,%edx
  eeba32:	lock cmpxchg %eax,0xf986de(%rip)        # 1e84118 <global_file_container+0x58>
  eeba3a:	jne    eeba30 <_Z15pfs_show_statusP10handlertonP3THDPFbS2_PKcmS4_mS4_mE12ha_stat_type+0x1840>
  eeba3c:	mov    %edx,%eax
  eeba3e:	mov    $0x15cb128,%r12d
  eeba44:	lea    (%rax,%rax,4),%rdx
  eeba48:	lea    (%rax,%rdx,2),%rdi
  eeba4c:	shl    $0x12,%rdi
  eeba50:	add    %rdi,-0x450(%rbp)
  eeba57:	jmpq   eea290 <_Z15pfs_show_statusP10handlertonP3THDPFbS2_PKcmS4_mS4_mE12ha_stat_type+0xa0>
  eeba5c:	mov    0xf986b6(%rip),%eax        # 1e84118 <global_file_container+0x58>
  eeba62:	mov    %eax,%edi
  eeba64:	lock cmpxchg %eax,0xf986ac(%rip)        # 1e84118 <global_file_container+0x58>
  eeba6c:	jne    eeba62 <_Z15pfs_show_statusP10handlertonP3THDPFbS2_PKcmS4_mS4_mE12ha_stat_type+0x1872>
  eeba6e:	shl    $0xc,%rdi
  eeba72:	mov    $0x15cb113,%r12d
  eeba78:	jmpq   eea290 <_Z15pfs_show_statusP10handlertonP3THDPFbS2_PKcmS4_mS4_mE12ha_stat_type+0xa0>
  eeba7d:	mov    $0x2c0,%edi
  eeba82:	mov    $0x15cb0ff,%r12d
  eeba88:	jmpq   eea290 <_Z15pfs_show_statusP10handlertonP3THDPFbS2_PKcmS4_mS4_mE12ha_stat_type+0xa0>
  eeba8d:	mov    0xf6a325(%rip),%eax        # 1e55db8 <global_thread_container+0x58>
  eeba93:	mov    %eax,%edx
  eeba95:	lock cmpxchg %eax,0xf6a31b(%rip)        # 1e55db8 <global_thread_container+0x58>
  eeba9d:	jne    eeba93 <_Z15pfs_show_statusP10handlertonP3THDPFbS2_PKcmS4_mS4_mE12ha_stat_type+0x18a3>
  eeba9f:	imul   $0xe8000,%rdx,%rdi
  eebaa6:	mov    $0x15cb0f0,%r12d
  eebaac:	add    %rdi,-0x450(%rbp)
  eebab3:	jmpq   eea290 <_Z15pfs_show_statusP10handlertonP3THDPFbS2_PKcmS4_mS4_mE12ha_stat_type+0xa0>
  eebab8:	mov    0xf6a2fa(%rip),%eax        # 1e55db8 <global_thread_container+0x58>
  eebabe:	mov    %eax,%edi
  eebac0:	lock cmpxchg %eax,0xf6a2f0(%rip)        # 1e55db8 <global_thread_container+0x58>
  eebac8:	jne    eebabe <_Z15pfs_show_statusP10handlertonP3THDPFbS2_PKcmS4_mS4_mE12ha_stat_type+0x18ce>
  eebaca:	shl    $0x8,%rdi
  eebace:	mov    $0x15cb0e2,%r12d
  eebad4:	jmpq   eea290 <_Z15pfs_show_statusP10handlertonP3THDPFbS2_PKcmS4_mS4_mE12ha_stat_type+0xa0>
  eebad9:	mov    $0xe80,%edi
  eebade:	mov    $0x15cb0d5,%r12d
  eebae4:	jmpq   eea290 <_Z15pfs_show_statusP10handlertonP3THDPFbS2_PKcmS4_mS4_mE12ha_stat_type+0xa0>
  eebae9:	mov    0xfa0709(%rip),%eax        # 1e8c1f8 <global_cond_container+0x58>
  eebaef:	mov    %eax,%edi
  eebaf1:	lock cmpxchg %eax,0xfa06ff(%rip)        # 1e8c1f8 <global_cond_container+0x58>
  eebaf9:	jne    eebaef <_Z15pfs_show_statusP10handlertonP3THDPFbS2_PKcmS4_mS4_mE12ha_stat_type+0x18ff>
  eebafb:	shl    $0xe,%rdi
  eebaff:	mov    $0x15cb0bf,%r12d
  eebb05:	add    %rdi,-0x450(%rbp)
  eebb0c:	jmpq   eea290 <_Z15pfs_show_statusP10handlertonP3THDPFbS2_PKcmS4_mS4_mE12ha_stat_type+0xa0>
  eebb11:	mov    0xfa06e1(%rip),%eax        # 1e8c1f8 <global_cond_container+0x58>
  eebb17:	mov    %eax,%edi
  eebb19:	lock cmpxchg %eax,0xfa06d7(%rip)        # 1e8c1f8 <global_cond_container+0x58>
  eebb21:	jne    eebb17 <_Z15pfs_show_statusP10handlertonP3THDPFbS2_PKcmS4_mS4_mE12ha_stat_type+0x1927>
  eebb23:	shl    $0x8,%rdi
  eebb27:	mov    $0x15cb0aa,%r12d
  eebb2d:	jmpq   eea290 <_Z15pfs_show_statusP10handlertonP3THDPFbS2_PKcmS4_mS4_mE12ha_stat_type+0xa0>
  eebb32:	mov    $0x40,%edi
  eebb37:	mov    $0x15cb096,%r12d
  eebb3d:	jmpq   eea290 <_Z15pfs_show_statusP10handlertonP3THDPFbS2_PKcmS4_mS4_mE12ha_stat_type+0xa0>
  eebb42:	mov    0xfa0f90(%rip),%eax        # 1e8cad8 <global_rwlock_container+0x58>
  eebb48:	mov    %eax,%edi
  eebb4a:	lock cmpxchg %eax,0xfa0f86(%rip)        # 1e8cad8 <global_rwlock_container+0x58>
  eebb52:	jne    eebb48 <_Z15pfs_show_statusP10handlertonP3THDPFbS2_PKcmS4_mS4_mE12ha_stat_type+0x1958>
  eebb54:	shl    $0x11,%rdi
  eebb58:	mov    $0x15cb07e,%r12d
  eebb5e:	add    %rdi,-0x450(%rbp)
  eebb65:	jmpq   eea290 <_Z15pfs_show_statusP10handlertonP3THDPFbS2_PKcmS4_mS4_mE12ha_stat_type+0xa0>
  eebb6a:	mov    0xfa0f68(%rip),%eax        # 1e8cad8 <global_rwlock_container+0x58>
  eebb70:	mov    %eax,%edi
  eebb72:	lock cmpxchg %eax,0xfa0f5e(%rip)        # 1e8cad8 <global_rwlock_container+0x58>
  eebb7a:	jne    eebb70 <_Z15pfs_show_statusP10handlertonP3THDPFbS2_PKcmS4_mS4_mE12ha_stat_type+0x1980>
  eebb7c:	shl    $0xa,%rdi
  eebb80:	mov    $0x15cb067,%r12d
  eebb86:	jmpq   eea290 <_Z15pfs_show_statusP10handlertonP3THDPFbS2_PKcmS4_mS4_mE12ha_stat_type+0xa0>
  eebb8b:	mov    $0x80,%edi
  eebb90:	mov    $0x15cb051,%r12d
  eebb96:	jmpq   eea290 <_Z15pfs_show_statusP10handlertonP3THDPFbS2_PKcmS4_mS4_mE12ha_stat_type+0xa0>
  eebb9b:	mov    0xfa2fbe(%rip),%rcx        # 1e8eb60 <global_mutex_container>
  eebba2:	mov    0x58(%rcx),%eax
  eebba5:	mov    %eax,%edx
  eebba7:	mov    %edx,%eax
  eebba9:	lock cmpxchg %edx,0x58(%rcx)
  eebbae:	jne    eebba5 <_Z15pfs_show_statusP10handlertonP3THDPFbS2_PKcmS4_mS4_mE12ha_stat_type+0x19b5>
  eebbb0:	mov    0xfa2fb1(%rip),%rcx        # 1e8eb68 <global_mutex_container+0x8>
  eebbb7:	mov    0x58(%rcx),%eax
  eebbba:	mov    %eax,%esi
  eebbbc:	lock cmpxchg %eax,0x58(%rcx)
  eebbc1:	jne    eebbba <_Z15pfs_show_statusP10handlertonP3THDPFbS2_PKcmS4_mS4_mE12ha_stat_type+0x19ca>
  eebbc3:	lea    (%rsi,%rdx,1),%rdi
  eebbc7:	mov    $0x15cb03a,%r12d
  eebbcd:	shl    $0x11,%rdi
  eebbd1:	add    %rdi,-0x450(%rbp)
  eebbd8:	jmpq   eea290 <_Z15pfs_show_statusP10handlertonP3THDPFbS2_PKcmS4_mS4_mE12ha_stat_type+0xa0>
  eebbdd:	mov    0xfa2f7c(%rip),%rcx        # 1e8eb60 <global_mutex_container>
  eebbe4:	mov    0x58(%rcx),%eax
  eebbe7:	mov    %eax,%edx
  eebbe9:	mov    %edx,%eax
  eebbeb:	lock cmpxchg %edx,0x58(%rcx)
  eebbf0:	jne    eebbe7 <_Z15pfs_show_statusP10handlertonP3THDPFbS2_PKcmS4_mS4_mE12ha_stat_type+0x19f7>
  eebbf2:	mov    0xfa2f6f(%rip),%rcx        # 1e8eb68 <global_mutex_container+0x8>
  eebbf9:	mov    0x58(%rcx),%eax
  eebbfc:	mov    %eax,%esi
  eebbfe:	lock cmpxchg %eax,0x58(%rcx)
  eebc03:	jne    eebbfc <_Z15pfs_show_statusP10handlertonP3THDPFbS2_PKcmS4_mS4_mE12ha_stat_type+0x1a0c>
  eebc05:	lea    (%rsi,%rdx,1),%rdi
  eebc09:	mov    $0x15cb024,%r12d
  eebc0f:	shl    $0xa,%rdi
  eebc13:	jmpq   eea290 <_Z15pfs_show_statusP10handlertonP3THDPFbS2_PKcmS4_mS4_mE12ha_stat_type+0xa0>
  eebc18:	mov    $0x80,%edi
  eebc1d:	mov    $0x15cb00f,%r12d
  eebc23:	jmpq   eea290 <_Z15pfs_show_statusP10handlertonP3THDPFbS2_PKcmS4_mS4_mE12ha_stat_type+0xa0>
  eebc28:	mov    0xfa9e31(%rip),%rax        # 1e95a60 <file_class_max>
  eebc2f:	mov    $0x15caff7,%r12d
  eebc35:	lea    (%rax,%rax,4),%rdi
  eebc39:	shl    $0x6,%rdi
  eebc3d:	add    %rdi,-0x450(%rbp)
  eebc44:	jmpq   eea290 <_Z15pfs_show_statusP10handlertonP3THDPFbS2_PKcmS4_mS4_mE12ha_stat_type+0xa0>
  eebc49:	mov    0xfa9e10(%rip),%rdi        # 1e95a60 <file_class_max>
  eebc50:	mov    $0x15cafe0,%r12d
  eebc56:	jmpq   eea290 <_Z15pfs_show_statusP10handlertonP3THDPFbS2_PKcmS4_mS4_mE12ha_stat_type+0xa0>
  eebc5b:	mov    $0x140,%edi
  eebc60:	mov    $0x15cafca,%r12d
  eebc66:	jmpq   eea290 <_Z15pfs_show_statusP10handlertonP3THDPFbS2_PKcmS4_mS4_mE12ha_stat_type+0xa0>
  eebc6b:	mov    0xfa9e0e(%rip),%rax        # 1e95a80 <thread_class_max>
  eebc72:	mov    $0x15cafb0,%r12d
  eebc78:	lea    (%rax,%rax,2),%rdi
  eebc7c:	shl    $0x6,%rdi
  eebc80:	add    %rdi,-0x450(%rbp)
  eebc87:	jmpq   eea290 <_Z15pfs_show_statusP10handlertonP3THDPFbS2_PKcmS4_mS4_mE12ha_stat_type+0xa0>
  eebc8c:	mov    0xfa9ded(%rip),%rdi        # 1e95a80 <thread_class_max>
  eebc93:	mov    $0x15caf97,%r12d
  eebc99:	jmpq   eea290 <_Z15pfs_show_statusP10handlertonP3THDPFbS2_PKcmS4_mS4_mE12ha_stat_type+0xa0>
  eebc9e:	mov    $0xc0,%edi
  eebca3:	mov    $0x15caf7f,%r12d
  eebca9:	jmpq   eea290 <_Z15pfs_show_statusP10handlertonP3THDPFbS2_PKcmS4_mS4_mE12ha_stat_type+0xa0>
  eebcae:	mov    0xfa9deb(%rip),%rdi        # 1e95aa0 <cond_class_max>
  eebcb5:	mov    $0x15caf67,%r12d
  eebcbb:	shl    $0x8,%rdi
  eebcbf:	add    %rdi,-0x450(%rbp)
  eebcc6:	jmpq   eea290 <_Z15pfs_show_statusP10handlertonP3THDPFbS2_PKcmS4_mS4_mE12ha_stat_type+0xa0>
  eebccb:	mov    0xfa9dce(%rip),%rdi        # 1e95aa0 <cond_class_max>
  eebcd2:	mov    $0x15caf50,%r12d
  eebcd8:	jmpq   eea290 <_Z15pfs_show_statusP10handlertonP3THDPFbS2_PKcmS4_mS4_mE12ha_stat_type+0xa0>
  eebcdd:	mov    $0x100,%edi
  eebce2:	mov    $0x15caf3a,%r12d
  eebce8:	jmpq   eea290 <_Z15pfs_show_statusP10handlertonP3THDPFbS2_PKcmS4_mS4_mE12ha_stat_type+0xa0>
  eebced:	mov    0xfa9dcc(%rip),%rdi        # 1e95ac0 <rwlock_class_max>
  eebcf4:	mov    $0x15caf20,%r12d
  eebcfa:	shl    $0x8,%rdi
  eebcfe:	add    %rdi,-0x450(%rbp)
  eebd05:	jmpq   eea290 <_Z15pfs_show_statusP10handlertonP3THDPFbS2_PKcmS4_mS4_mE12ha_stat_type+0xa0>
  eebd0a:	mov    0xfa9daf(%rip),%rdi        # 1e95ac0 <rwlock_class_max>
  eebd11:	mov    $0x15caf07,%r12d
  eebd17:	jmpq   eea290 <_Z15pfs_show_statusP10handlertonP3THDPFbS2_PKcmS4_mS4_mE12ha_stat_type+0xa0>
  eebd1c:	mov    $0x100,%edi
  eebd21:	mov    $0x15caeef,%r12d
  eebd27:	jmpq   eea290 <_Z15pfs_show_statusP10handlertonP3THDPFbS2_PKcmS4_mS4_mE12ha_stat_type+0xa0>
  eebd2c:	mov    0xfa9dad(%rip),%rdi        # 1e95ae0 <mutex_class_max>
  eebd33:	mov    $0x15caed6,%r12d
  eebd39:	shl    $0x8,%rdi
  eebd3d:	add    %rdi,-0x450(%rbp)
  eebd44:	jmpq   eea290 <_Z15pfs_show_statusP10handlertonP3THDPFbS2_PKcmS4_mS4_mE12ha_stat_type+0xa0>
  eebd49:	mov    0xfa9d90(%rip),%rdi        # 1e95ae0 <mutex_class_max>
  eebd50:	mov    $0x15caebe,%r12d
  eebd56:	jmpq   eea290 <_Z15pfs_show_statusP10handlertonP3THDPFbS2_PKcmS4_mS4_mE12ha_stat_type+0xa0>
  eebd5b:	mov    $0x100,%edi
  eebd60:	mov    $0x15caea7,%r12d
  eebd66:	jmpq   eea290 <_Z15pfs_show_statusP10handlertonP3THDPFbS2_PKcmS4_mS4_mE12ha_stat_type+0xa0>
  eebd6b:	mov    0xfa8fce(%rip),%rax        # 1e94d40 <events_waits_history_long_size>
  eebd72:	mov    $0x15cb778,%r12d
  eebd78:	lea    (%rax,%rax,4),%rdx
  eebd7c:	lea    (%rax,%rdx,2),%rdi
  eebd80:	shl    $0x4,%rdi
  eebd84:	add    %rdi,-0x450(%rbp)
  eebd8b:	jmpq   eea290 <_Z15pfs_show_statusP10handlertonP3THDPFbS2_PKcmS4_mS4_mE12ha_stat_type+0xa0>
  eebd90:	mov    0xfa8fa9(%rip),%rdi        # 1e94d40 <events_waits_history_long_size>
  eebd97:	mov    $0x15cb758,%r12d
  eebd9d:	jmpq   eea290 <_Z15pfs_show_statusP10handlertonP3THDPFbS2_PKcmS4_mS4_mE12ha_stat_type+0xa0>
  eebda2:	mov    $0xb0,%edi
  eebda7:	mov    $0x15cb738,%r12d
  eebdad:	jmpq   eea290 <_Z15pfs_show_statusP10handlertonP3THDPFbS2_PKcmS4_mS4_mE12ha_stat_type+0xa0>
  eebdb2:	mov    0xf6a000(%rip),%eax        # 1e55db8 <global_thread_container+0x58>
  eebdb8:	mov    %eax,%edx
  eebdba:	lock cmpxchg %eax,0xf69ff6(%rip)        # 1e55db8 <global_thread_container+0x58>
  eebdc2:	jne    eebdb8 <_Z15pfs_show_statusP10handlertonP3THDPFbS2_PKcmS4_mS4_mE12ha_stat_type+0x1bc8>
  eebdc4:	mov    0xfa92d5(%rip),%rax        # 1e950a0 <events_waits_history_per_thread>
  eebdcb:	mov    $0x15cae8b,%r12d
  eebdd1:	lea    (%rax,%rax,4),%rcx
  eebdd5:	lea    (%rax,%rcx,2),%rdi
  eebdd9:	shl    $0xc,%rdi
  eebddd:	imul   %rdx,%rdi
  eebde1:	add    %rdi,-0x450(%rbp)
  eebde8:	jmpq   eea290 <_Z15pfs_show_statusP10handlertonP3THDPFbS2_PKcmS4_mS4_mE12ha_stat_type+0xa0>
  eebded:	mov    0xf69fc5(%rip),%eax        # 1e55db8 <global_thread_container+0x58>
  eebdf3:	mov    %eax,%edx
  eebdf5:	lock cmpxchg %eax,0xf69fbb(%rip)        # 1e55db8 <global_thread_container+0x58>
  eebdfd:	jne    eebdf3 <_Z15pfs_show_statusP10handlertonP3THDPFbS2_PKcmS4_mS4_mE12ha_stat_type+0x1c03>
  eebdff:	mov    0xfa929a(%rip),%rdi        # 1e950a0 <events_waits_history_per_thread>
  eebe06:	mov    $0x15cae70,%r12d
  eebe0c:	shl    $0x8,%rdi
  eebe10:	imul   %rdx,%rdi
  eebe14:	jmpq   eea290 <_Z15pfs_show_statusP10handlertonP3THDPFbS2_PKcmS4_mS4_mE12ha_stat_type+0xa0>
  eebe19:	callq  762130 <__stack_chk_fail@plt>
  eebe1e:	xchg   %ax,%ax
